

Microchip Technology PIC LITE Macro Assembler V1.32 build 58300 
                                                                                               Thu May 21 16:01:26 2015

Microchip Technology Omniscient Code Generator (Lite mode) build 58300
     1                           	processor	16F1783
     2                           	opt	pw 120
     3                           	opt	lm
     4                           	psect	idataCOMMON,global,class=CODE,delta=2
     5                           	psect	idataBIGRAM,global,class=CODE,delta=2
     6                           	psect	cinit,global,class=CODE,merge=1,delta=2
     7                           	psect	bssCOMMON,global,class=COMMON,space=1,delta=1
     8                           	psect	dataCOMMON,global,class=COMMON,space=1,delta=1
     9                           	psect	bssBANK0,global,class=BANK0,space=1,delta=1
    10                           	psect	inittext,global,class=CODE,delta=2
    11                           	psect	cstackCOMMON,global,class=COMMON,space=1,delta=1
    12                           	psect	cstackBANK0,global,class=BANK0,space=1,delta=1
    13                           	psect	maintext,global,class=CODE,merge=1,split=1,delta=2
    14                           	psect	text1,local,class=CODE,merge=1,delta=2
    15                           	psect	text2,local,class=CODE,merge=1,delta=2
    16                           	psect	text3,local,class=CODE,merge=1,delta=2
    17                           	psect	text4,local,class=CODE,merge=1,delta=2
    18                           	psect	text5,local,class=CODE,merge=1,delta=2
    19                           	psect	text6,local,class=CODE,merge=1,delta=2
    20                           	psect	text7,local,class=CODE,merge=1,delta=2
    21                           	psect	intentry,global,class=CODE,delta=2
    22                           	psect	text9,local,class=CODE,merge=1,delta=2
    23                           	psect	text10,local,class=CODE,merge=1,delta=2
    24                           	dabs	1,0x320,16
    25                           	dabs	1,0x2A0,80
    26                           	dabs	1,0x250,32
    27                           	dabs	1,0x2170,0,I2C_StatusCallback@EEPROM_Buffer
    28                           	dabs	1,0x7E,2
    29  0000                     	;# 
    30  0001                     	;# 
    31  0002                     	;# 
    32  0003                     	;# 
    33  0004                     	;# 
    34  0005                     	;# 
    35  0006                     	;# 
    36  0007                     	;# 
    37  0008                     	;# 
    38  0009                     	;# 
    39  000A                     	;# 
    40  000B                     	;# 
    41  000C                     	;# 
    42  000D                     	;# 
    43  000E                     	;# 
    44  0010                     	;# 
    45  0011                     	;# 
    46  0012                     	;# 
    47  0014                     	;# 
    48  0015                     	;# 
    49  0016                     	;# 
    50  0016                     	;# 
    51  0017                     	;# 
    52  0018                     	;# 
    53  0019                     	;# 
    54  001A                     	;# 
    55  001B                     	;# 
    56  001C                     	;# 
    57  008C                     	;# 
    58  008D                     	;# 
    59  008E                     	;# 
    60  0090                     	;# 
    61  0091                     	;# 
    62  0092                     	;# 
    63  0094                     	;# 
    64  0095                     	;# 
    65  0096                     	;# 
    66  0097                     	;# 
    67  0098                     	;# 
    68  0099                     	;# 
    69  009A                     	;# 
    70  009B                     	;# 
    71  009B                     	;# 
    72  009C                     	;# 
    73  009D                     	;# 
    74  009E                     	;# 
    75  009F                     	;# 
    76  010C                     	;# 
    77  010D                     	;# 
    78  010E                     	;# 
    79  0111                     	;# 
    80  0112                     	;# 
    81  0113                     	;# 
    82  0114                     	;# 
    83  0115                     	;# 
    84  0116                     	;# 
    85  0117                     	;# 
    86  0118                     	;# 
    87  0119                     	;# 
    88  011D                     	;# 
    89  011D                     	;# 
    90  011E                     	;# 
    91  011F                     	;# 
    92  018C                     	;# 
    93  018D                     	;# 
    94  0191                     	;# 
    95  0191                     	;# 
    96  0192                     	;# 
    97  0193                     	;# 
    98  0193                     	;# 
    99  0193                     	;# 
   100  0194                     	;# 
   101  0195                     	;# 
   102  0196                     	;# 
   103  0197                     	;# 
   104  0199                     	;# 
   105  0199                     	;# 
   106  0199                     	;# 
   107  019A                     	;# 
   108  019A                     	;# 
   109  019A                     	;# 
   110  019B                     	;# 
   111  019B                     	;# 
   112  019B                     	;# 
   113  019B                     	;# 
   114  019B                     	;# 
   115  019C                     	;# 
   116  019C                     	;# 
   117  019C                     	;# 
   118  019D                     	;# 
   119  019D                     	;# 
   120  019D                     	;# 
   121  019E                     	;# 
   122  019E                     	;# 
   123  019E                     	;# 
   124  019F                     	;# 
   125  019F                     	;# 
   126  019F                     	;# 
   127  019F                     	;# 
   128  019F                     	;# 
   129  020C                     	;# 
   130  020D                     	;# 
   131  020E                     	;# 
   132  0210                     	;# 
   133  0211                     	;# 
   134  0211                     	;# 
   135  0212                     	;# 
   136  0212                     	;# 
   137  0213                     	;# 
   138  0213                     	;# 
   139  0214                     	;# 
   140  0214                     	;# 
   141  0215                     	;# 
   142  0215                     	;# 
   143  0215                     	;# 
   144  0216                     	;# 
   145  0216                     	;# 
   146  0217                     	;# 
   147  0217                     	;# 
   148  028C                     	;# 
   149  028D                     	;# 
   150  028E                     	;# 
   151  0291                     	;# 
   152  0291                     	;# 
   153  0292                     	;# 
   154  0293                     	;# 
   155  0298                     	;# 
   156  0298                     	;# 
   157  0299                     	;# 
   158  029A                     	;# 
   159  030C                     	;# 
   160  030D                     	;# 
   161  030E                     	;# 
   162  038C                     	;# 
   163  038D                     	;# 
   164  038E                     	;# 
   165  0390                     	;# 
   166  0391                     	;# 
   167  0392                     	;# 
   168  0393                     	;# 
   169  0394                     	;# 
   170  0395                     	;# 
   171  0396                     	;# 
   172  0397                     	;# 
   173  0398                     	;# 
   174  0399                     	;# 
   175  039D                     	;# 
   176  039E                     	;# 
   177  039F                     	;# 
   178  0511                     	;# 
   179  0513                     	;# 
   180  051A                     	;# 
   181  0811                     	;# 
   182  0812                     	;# 
   183  0813                     	;# 
   184  0814                     	;# 
   185  0815                     	;# 
   186  0816                     	;# 
   187  0817                     	;# 
   188  0818                     	;# 
   189  0819                     	;# 
   190  081A                     	;# 
   191  081B                     	;# 
   192  081C                     	;# 
   193  081D                     	;# 
   194  081E                     	;# 
   195  081F                     	;# 
   196  0820                     	;# 
   197  0821                     	;# 
   198  0821                     	;# 
   199  0822                     	;# 
   200  0823                     	;# 
   201  0823                     	;# 
   202  0824                     	;# 
   203  0825                     	;# 
   204  0825                     	;# 
   205  0826                     	;# 
   206  0827                     	;# 
   207  0827                     	;# 
   208  0828                     	;# 
   209  0829                     	;# 
   210  082A                     	;# 
   211  082B                     	;# 
   212  082C                     	;# 
   213  082D                     	;# 
   214  082E                     	;# 
   215  082F                     	;# 
   216  0831                     	;# 
   217  0832                     	;# 
   218  0833                     	;# 
   219  0834                     	;# 
   220  0835                     	;# 
   221  0836                     	;# 
   222  0837                     	;# 
   223  0838                     	;# 
   224  0839                     	;# 
   225  083A                     	;# 
   226  083B                     	;# 
   227  083C                     	;# 
   228  083D                     	;# 
   229  083E                     	;# 
   230  083F                     	;# 
   231  0840                     	;# 
   232  0841                     	;# 
   233  0841                     	;# 
   234  0842                     	;# 
   235  0843                     	;# 
   236  0843                     	;# 
   237  0844                     	;# 
   238  0845                     	;# 
   239  0845                     	;# 
   240  0846                     	;# 
   241  0847                     	;# 
   242  0847                     	;# 
   243  0848                     	;# 
   244  0849                     	;# 
   245  084A                     	;# 
   246  084B                     	;# 
   247  084C                     	;# 
   248  084D                     	;# 
   249  084E                     	;# 
   250  084F                     	;# 
   251  0FE4                     	;# 
   252  0FE5                     	;# 
   253  0FE6                     	;# 
   254  0FE7                     	;# 
   255  0FE8                     	;# 
   256  0FE9                     	;# 
   257  0FEA                     	;# 
   258  0FEB                     	;# 
   259  0FED                     	;# 
   260  0FEE                     	;# 
   261  0FEF                     	;# 
   262  0000                     	;# 
   263  0001                     	;# 
   264  0002                     	;# 
   265  0003                     	;# 
   266  0004                     	;# 
   267  0005                     	;# 
   268  0006                     	;# 
   269  0007                     	;# 
   270  0008                     	;# 
   271  0009                     	;# 
   272  000A                     	;# 
   273  000B                     	;# 
   274  000C                     	;# 
   275  000D                     	;# 
   276  000E                     	;# 
   277  0010                     	;# 
   278  0011                     	;# 
   279  0012                     	;# 
   280  0014                     	;# 
   281  0015                     	;# 
   282  0016                     	;# 
   283  0016                     	;# 
   284  0017                     	;# 
   285  0018                     	;# 
   286  0019                     	;# 
   287  001A                     	;# 
   288  001B                     	;# 
   289  001C                     	;# 
   290  008C                     	;# 
   291  008D                     	;# 
   292  008E                     	;# 
   293  0090                     	;# 
   294  0091                     	;# 
   295  0092                     	;# 
   296  0094                     	;# 
   297  0095                     	;# 
   298  0096                     	;# 
   299  0097                     	;# 
   300  0098                     	;# 
   301  0099                     	;# 
   302  009A                     	;# 
   303  009B                     	;# 
   304  009B                     	;# 
   305  009C                     	;# 
   306  009D                     	;# 
   307  009E                     	;# 
   308  009F                     	;# 
   309  010C                     	;# 
   310  010D                     	;# 
   311  010E                     	;# 
   312  0111                     	;# 
   313  0112                     	;# 
   314  0113                     	;# 
   315  0114                     	;# 
   316  0115                     	;# 
   317  0116                     	;# 
   318  0117                     	;# 
   319  0118                     	;# 
   320  0119                     	;# 
   321  011D                     	;# 
   322  011D                     	;# 
   323  011E                     	;# 
   324  011F                     	;# 
   325  018C                     	;# 
   326  018D                     	;# 
   327  0191                     	;# 
   328  0191                     	;# 
   329  0192                     	;# 
   330  0193                     	;# 
   331  0193                     	;# 
   332  0193                     	;# 
   333  0194                     	;# 
   334  0195                     	;# 
   335  0196                     	;# 
   336  0197                     	;# 
   337  0199                     	;# 
   338  0199                     	;# 
   339  0199                     	;# 
   340  019A                     	;# 
   341  019A                     	;# 
   342  019A                     	;# 
   343  019B                     	;# 
   344  019B                     	;# 
   345  019B                     	;# 
   346  019B                     	;# 
   347  019B                     	;# 
   348  019C                     	;# 
   349  019C                     	;# 
   350  019C                     	;# 
   351  019D                     	;# 
   352  019D                     	;# 
   353  019D                     	;# 
   354  019E                     	;# 
   355  019E                     	;# 
   356  019E                     	;# 
   357  019F                     	;# 
   358  019F                     	;# 
   359  019F                     	;# 
   360  019F                     	;# 
   361  019F                     	;# 
   362  020C                     	;# 
   363  020D                     	;# 
   364  020E                     	;# 
   365  0210                     	;# 
   366  0211                     	;# 
   367  0211                     	;# 
   368  0212                     	;# 
   369  0212                     	;# 
   370  0213                     	;# 
   371  0213                     	;# 
   372  0214                     	;# 
   373  0214                     	;# 
   374  0215                     	;# 
   375  0215                     	;# 
   376  0215                     	;# 
   377  0216                     	;# 
   378  0216                     	;# 
   379  0217                     	;# 
   380  0217                     	;# 
   381  028C                     	;# 
   382  028D                     	;# 
   383  028E                     	;# 
   384  0291                     	;# 
   385  0291                     	;# 
   386  0292                     	;# 
   387  0293                     	;# 
   388  0298                     	;# 
   389  0298                     	;# 
   390  0299                     	;# 
   391  029A                     	;# 
   392  030C                     	;# 
   393  030D                     	;# 
   394  030E                     	;# 
   395  038C                     	;# 
   396  038D                     	;# 
   397  038E                     	;# 
   398  0390                     	;# 
   399  0391                     	;# 
   400  0392                     	;# 
   401  0393                     	;# 
   402  0394                     	;# 
   403  0395                     	;# 
   404  0396                     	;# 
   405  0397                     	;# 
   406  0398                     	;# 
   407  0399                     	;# 
   408  039D                     	;# 
   409  039E                     	;# 
   410  039F                     	;# 
   411  0511                     	;# 
   412  0513                     	;# 
   413  051A                     	;# 
   414  0811                     	;# 
   415  0812                     	;# 
   416  0813                     	;# 
   417  0814                     	;# 
   418  0815                     	;# 
   419  0816                     	;# 
   420  0817                     	;# 
   421  0818                     	;# 
   422  0819                     	;# 
   423  081A                     	;# 
   424  081B                     	;# 
   425  081C                     	;# 
   426  081D                     	;# 
   427  081E                     	;# 
   428  081F                     	;# 
   429  0820                     	;# 
   430  0821                     	;# 
   431  0821                     	;# 
   432  0822                     	;# 
   433  0823                     	;# 
   434  0823                     	;# 
   435  0824                     	;# 
   436  0825                     	;# 
   437  0825                     	;# 
   438  0826                     	;# 
   439  0827                     	;# 
   440  0827                     	;# 
   441  0828                     	;# 
   442  0829                     	;# 
   443  082A                     	;# 
   444  082B                     	;# 
   445  082C                     	;# 
   446  082D                     	;# 
   447  082E                     	;# 
   448  082F                     	;# 
   449  0831                     	;# 
   450  0832                     	;# 
   451  0833                     	;# 
   452  0834                     	;# 
   453  0835                     	;# 
   454  0836                     	;# 
   455  0837                     	;# 
   456  0838                     	;# 
   457  0839                     	;# 
   458  083A                     	;# 
   459  083B                     	;# 
   460  083C                     	;# 
   461  083D                     	;# 
   462  083E                     	;# 
   463  083F                     	;# 
   464  0840                     	;# 
   465  0841                     	;# 
   466  0841                     	;# 
   467  0842                     	;# 
   468  0843                     	;# 
   469  0843                     	;# 
   470  0844                     	;# 
   471  0845                     	;# 
   472  0845                     	;# 
   473  0846                     	;# 
   474  0847                     	;# 
   475  0847                     	;# 
   476  0848                     	;# 
   477  0849                     	;# 
   478  084A                     	;# 
   479  084B                     	;# 
   480  084C                     	;# 
   481  084D                     	;# 
   482  084E                     	;# 
   483  084F                     	;# 
   484  0FE4                     	;# 
   485  0FE5                     	;# 
   486  0FE6                     	;# 
   487  0FE7                     	;# 
   488  0FE8                     	;# 
   489  0FE9                     	;# 
   490  0FEA                     	;# 
   491  0FEB                     	;# 
   492  0FED                     	;# 
   493  0FEE                     	;# 
   494  0FEF                     	;# 
   495  0000                     	;# 
   496  0001                     	;# 
   497  0002                     	;# 
   498  0003                     	;# 
   499  0004                     	;# 
   500  0005                     	;# 
   501  0006                     	;# 
   502  0007                     	;# 
   503  0008                     	;# 
   504  0009                     	;# 
   505  000A                     	;# 
   506  000B                     	;# 
   507  000C                     	;# 
   508  000D                     	;# 
   509  000E                     	;# 
   510  0010                     	;# 
   511  0011                     	;# 
   512  0012                     	;# 
   513  0014                     	;# 
   514  0015                     	;# 
   515  0016                     	;# 
   516  0016                     	;# 
   517  0017                     	;# 
   518  0018                     	;# 
   519  0019                     	;# 
   520  001A                     	;# 
   521  001B                     	;# 
   522  001C                     	;# 
   523  008C                     	;# 
   524  008D                     	;# 
   525  008E                     	;# 
   526  0090                     	;# 
   527  0091                     	;# 
   528  0092                     	;# 
   529  0094                     	;# 
   530  0095                     	;# 
   531  0096                     	;# 
   532  0097                     	;# 
   533  0098                     	;# 
   534  0099                     	;# 
   535  009A                     	;# 
   536  009B                     	;# 
   537  009B                     	;# 
   538  009C                     	;# 
   539  009D                     	;# 
   540  009E                     	;# 
   541  009F                     	;# 
   542  010C                     	;# 
   543  010D                     	;# 
   544  010E                     	;# 
   545  0111                     	;# 
   546  0112                     	;# 
   547  0113                     	;# 
   548  0114                     	;# 
   549  0115                     	;# 
   550  0116                     	;# 
   551  0117                     	;# 
   552  0118                     	;# 
   553  0119                     	;# 
   554  011D                     	;# 
   555  011D                     	;# 
   556  011E                     	;# 
   557  011F                     	;# 
   558  018C                     	;# 
   559  018D                     	;# 
   560  0191                     	;# 
   561  0191                     	;# 
   562  0192                     	;# 
   563  0193                     	;# 
   564  0193                     	;# 
   565  0193                     	;# 
   566  0194                     	;# 
   567  0195                     	;# 
   568  0196                     	;# 
   569  0197                     	;# 
   570  0199                     	;# 
   571  0199                     	;# 
   572  0199                     	;# 
   573  019A                     	;# 
   574  019A                     	;# 
   575  019A                     	;# 
   576  019B                     	;# 
   577  019B                     	;# 
   578  019B                     	;# 
   579  019B                     	;# 
   580  019B                     	;# 
   581  019C                     	;# 
   582  019C                     	;# 
   583  019C                     	;# 
   584  019D                     	;# 
   585  019D                     	;# 
   586  019D                     	;# 
   587  019E                     	;# 
   588  019E                     	;# 
   589  019E                     	;# 
   590  019F                     	;# 
   591  019F                     	;# 
   592  019F                     	;# 
   593  019F                     	;# 
   594  019F                     	;# 
   595  020C                     	;# 
   596  020D                     	;# 
   597  020E                     	;# 
   598  0210                     	;# 
   599  0211                     	;# 
   600  0211                     	;# 
   601  0212                     	;# 
   602  0212                     	;# 
   603  0213                     	;# 
   604  0213                     	;# 
   605  0214                     	;# 
   606  0214                     	;# 
   607  0215                     	;# 
   608  0215                     	;# 
   609  0215                     	;# 
   610  0216                     	;# 
   611  0216                     	;# 
   612  0217                     	;# 
   613  0217                     	;# 
   614  028C                     	;# 
   615  028D                     	;# 
   616  028E                     	;# 
   617  0291                     	;# 
   618  0291                     	;# 
   619  0292                     	;# 
   620  0293                     	;# 
   621  0298                     	;# 
   622  0298                     	;# 
   623  0299                     	;# 
   624  029A                     	;# 
   625  030C                     	;# 
   626  030D                     	;# 
   627  030E                     	;# 
   628  038C                     	;# 
   629  038D                     	;# 
   630  038E                     	;# 
   631  0390                     	;# 
   632  0391                     	;# 
   633  0392                     	;# 
   634  0393                     	;# 
   635  0394                     	;# 
   636  0395                     	;# 
   637  0396                     	;# 
   638  0397                     	;# 
   639  0398                     	;# 
   640  0399                     	;# 
   641  039D                     	;# 
   642  039E                     	;# 
   643  039F                     	;# 
   644  0511                     	;# 
   645  0513                     	;# 
   646  051A                     	;# 
   647  0811                     	;# 
   648  0812                     	;# 
   649  0813                     	;# 
   650  0814                     	;# 
   651  0815                     	;# 
   652  0816                     	;# 
   653  0817                     	;# 
   654  0818                     	;# 
   655  0819                     	;# 
   656  081A                     	;# 
   657  081B                     	;# 
   658  081C                     	;# 
   659  081D                     	;# 
   660  081E                     	;# 
   661  081F                     	;# 
   662  0820                     	;# 
   663  0821                     	;# 
   664  0821                     	;# 
   665  0822                     	;# 
   666  0823                     	;# 
   667  0823                     	;# 
   668  0824                     	;# 
   669  0825                     	;# 
   670  0825                     	;# 
   671  0826                     	;# 
   672  0827                     	;# 
   673  0827                     	;# 
   674  0828                     	;# 
   675  0829                     	;# 
   676  082A                     	;# 
   677  082B                     	;# 
   678  082C                     	;# 
   679  082D                     	;# 
   680  082E                     	;# 
   681  082F                     	;# 
   682  0831                     	;# 
   683  0832                     	;# 
   684  0833                     	;# 
   685  0834                     	;# 
   686  0835                     	;# 
   687  0836                     	;# 
   688  0837                     	;# 
   689  0838                     	;# 
   690  0839                     	;# 
   691  083A                     	;# 
   692  083B                     	;# 
   693  083C                     	;# 
   694  083D                     	;# 
   695  083E                     	;# 
   696  083F                     	;# 
   697  0840                     	;# 
   698  0841                     	;# 
   699  0841                     	;# 
   700  0842                     	;# 
   701  0843                     	;# 
   702  0843                     	;# 
   703  0844                     	;# 
   704  0845                     	;# 
   705  0845                     	;# 
   706  0846                     	;# 
   707  0847                     	;# 
   708  0847                     	;# 
   709  0848                     	;# 
   710  0849                     	;# 
   711  084A                     	;# 
   712  084B                     	;# 
   713  084C                     	;# 
   714  084D                     	;# 
   715  084E                     	;# 
   716  084F                     	;# 
   717  0FE4                     	;# 
   718  0FE5                     	;# 
   719  0FE6                     	;# 
   720  0FE7                     	;# 
   721  0FE8                     	;# 
   722  0FE9                     	;# 
   723  0FEA                     	;# 
   724  0FEB                     	;# 
   725  0FED                     	;# 
   726  0FEE                     	;# 
   727  0FEF                     	;# 
   728  0000                     	;# 
   729  0001                     	;# 
   730  0002                     	;# 
   731  0003                     	;# 
   732  0004                     	;# 
   733  0005                     	;# 
   734  0006                     	;# 
   735  0007                     	;# 
   736  0008                     	;# 
   737  0009                     	;# 
   738  000A                     	;# 
   739  000B                     	;# 
   740  000C                     	;# 
   741  000D                     	;# 
   742  000E                     	;# 
   743  0010                     	;# 
   744  0011                     	;# 
   745  0012                     	;# 
   746  0014                     	;# 
   747  0015                     	;# 
   748  0016                     	;# 
   749  0016                     	;# 
   750  0017                     	;# 
   751  0018                     	;# 
   752  0019                     	;# 
   753  001A                     	;# 
   754  001B                     	;# 
   755  001C                     	;# 
   756  008C                     	;# 
   757  008D                     	;# 
   758  008E                     	;# 
   759  0090                     	;# 
   760  0091                     	;# 
   761  0092                     	;# 
   762  0094                     	;# 
   763  0095                     	;# 
   764  0096                     	;# 
   765  0097                     	;# 
   766  0098                     	;# 
   767  0099                     	;# 
   768  009A                     	;# 
   769  009B                     	;# 
   770  009B                     	;# 
   771  009C                     	;# 
   772  009D                     	;# 
   773  009E                     	;# 
   774  009F                     	;# 
   775  010C                     	;# 
   776  010D                     	;# 
   777  010E                     	;# 
   778  0111                     	;# 
   779  0112                     	;# 
   780  0113                     	;# 
   781  0114                     	;# 
   782  0115                     	;# 
   783  0116                     	;# 
   784  0117                     	;# 
   785  0118                     	;# 
   786  0119                     	;# 
   787  011D                     	;# 
   788  011D                     	;# 
   789  011E                     	;# 
   790  011F                     	;# 
   791  018C                     	;# 
   792  018D                     	;# 
   793  0191                     	;# 
   794  0191                     	;# 
   795  0192                     	;# 
   796  0193                     	;# 
   797  0193                     	;# 
   798  0193                     	;# 
   799  0194                     	;# 
   800  0195                     	;# 
   801  0196                     	;# 
   802  0197                     	;# 
   803  0199                     	;# 
   804  0199                     	;# 
   805  0199                     	;# 
   806  019A                     	;# 
   807  019A                     	;# 
   808  019A                     	;# 
   809  019B                     	;# 
   810  019B                     	;# 
   811  019B                     	;# 
   812  019B                     	;# 
   813  019B                     	;# 
   814  019C                     	;# 
   815  019C                     	;# 
   816  019C                     	;# 
   817  019D                     	;# 
   818  019D                     	;# 
   819  019D                     	;# 
   820  019E                     	;# 
   821  019E                     	;# 
   822  019E                     	;# 
   823  019F                     	;# 
   824  019F                     	;# 
   825  019F                     	;# 
   826  019F                     	;# 
   827  019F                     	;# 
   828  020C                     	;# 
   829  020D                     	;# 
   830  020E                     	;# 
   831  0210                     	;# 
   832  0211                     	;# 
   833  0211                     	;# 
   834  0212                     	;# 
   835  0212                     	;# 
   836  0213                     	;# 
   837  0213                     	;# 
   838  0214                     	;# 
   839  0214                     	;# 
   840  0215                     	;# 
   841  0215                     	;# 
   842  0215                     	;# 
   843  0216                     	;# 
   844  0216                     	;# 
   845  0217                     	;# 
   846  0217                     	;# 
   847  028C                     	;# 
   848  028D                     	;# 
   849  028E                     	;# 
   850  0291                     	;# 
   851  0291                     	;# 
   852  0292                     	;# 
   853  0293                     	;# 
   854  0298                     	;# 
   855  0298                     	;# 
   856  0299                     	;# 
   857  029A                     	;# 
   858  030C                     	;# 
   859  030D                     	;# 
   860  030E                     	;# 
   861  038C                     	;# 
   862  038D                     	;# 
   863  038E                     	;# 
   864  0390                     	;# 
   865  0391                     	;# 
   866  0392                     	;# 
   867  0393                     	;# 
   868  0394                     	;# 
   869  0395                     	;# 
   870  0396                     	;# 
   871  0397                     	;# 
   872  0398                     	;# 
   873  0399                     	;# 
   874  039D                     	;# 
   875  039E                     	;# 
   876  039F                     	;# 
   877  0511                     	;# 
   878  0513                     	;# 
   879  051A                     	;# 
   880  0811                     	;# 
   881  0812                     	;# 
   882  0813                     	;# 
   883  0814                     	;# 
   884  0815                     	;# 
   885  0816                     	;# 
   886  0817                     	;# 
   887  0818                     	;# 
   888  0819                     	;# 
   889  081A                     	;# 
   890  081B                     	;# 
   891  081C                     	;# 
   892  081D                     	;# 
   893  081E                     	;# 
   894  081F                     	;# 
   895  0820                     	;# 
   896  0821                     	;# 
   897  0821                     	;# 
   898  0822                     	;# 
   899  0823                     	;# 
   900  0823                     	;# 
   901  0824                     	;# 
   902  0825                     	;# 
   903  0825                     	;# 
   904  0826                     	;# 
   905  0827                     	;# 
   906  0827                     	;# 
   907  0828                     	;# 
   908  0829                     	;# 
   909  082A                     	;# 
   910  082B                     	;# 
   911  082C                     	;# 
   912  082D                     	;# 
   913  082E                     	;# 
   914  082F                     	;# 
   915  0831                     	;# 
   916  0832                     	;# 
   917  0833                     	;# 
   918  0834                     	;# 
   919  0835                     	;# 
   920  0836                     	;# 
   921  0837                     	;# 
   922  0838                     	;# 
   923  0839                     	;# 
   924  083A                     	;# 
   925  083B                     	;# 
   926  083C                     	;# 
   927  083D                     	;# 
   928  083E                     	;# 
   929  083F                     	;# 
   930  0840                     	;# 
   931  0841                     	;# 
   932  0841                     	;# 
   933  0842                     	;# 
   934  0843                     	;# 
   935  0843                     	;# 
   936  0844                     	;# 
   937  0845                     	;# 
   938  0845                     	;# 
   939  0846                     	;# 
   940  0847                     	;# 
   941  0847                     	;# 
   942  0848                     	;# 
   943  0849                     	;# 
   944  084A                     	;# 
   945  084B                     	;# 
   946  084C                     	;# 
   947  084D                     	;# 
   948  084E                     	;# 
   949  084F                     	;# 
   950  0FE4                     	;# 
   951  0FE5                     	;# 
   952  0FE6                     	;# 
   953  0FE7                     	;# 
   954  0FE8                     	;# 
   955  0FE9                     	;# 
   956  0FEA                     	;# 
   957  0FEB                     	;# 
   958  0FED                     	;# 
   959  0FEE                     	;# 
   960  0FEF                     	;# 
   961  0000                     	;# 
   962  0001                     	;# 
   963  0002                     	;# 
   964  0003                     	;# 
   965  0004                     	;# 
   966  0005                     	;# 
   967  0006                     	;# 
   968  0007                     	;# 
   969  0008                     	;# 
   970  0009                     	;# 
   971  000A                     	;# 
   972  000B                     	;# 
   973  000C                     	;# 
   974  000D                     	;# 
   975  000E                     	;# 
   976  0010                     	;# 
   977  0011                     	;# 
   978  0012                     	;# 
   979  0014                     	;# 
   980  0015                     	;# 
   981  0016                     	;# 
   982  0016                     	;# 
   983  0017                     	;# 
   984  0018                     	;# 
   985  0019                     	;# 
   986  001A                     	;# 
   987  001B                     	;# 
   988  001C                     	;# 
   989  008C                     	;# 
   990  008D                     	;# 
   991  008E                     	;# 
   992  0090                     	;# 
   993  0091                     	;# 
   994  0092                     	;# 
   995  0094                     	;# 
   996  0095                     	;# 
   997  0096                     	;# 
   998  0097                     	;# 
   999  0098                     	;# 
  1000  0099                     	;# 
  1001  009A                     	;# 
  1002  009B                     	;# 
  1003  009B                     	;# 
  1004  009C                     	;# 
  1005  009D                     	;# 
  1006  009E                     	;# 
  1007  009F                     	;# 
  1008  010C                     	;# 
  1009  010D                     	;# 
  1010  010E                     	;# 
  1011  0111                     	;# 
  1012  0112                     	;# 
  1013  0113                     	;# 
  1014  0114                     	;# 
  1015  0115                     	;# 
  1016  0116                     	;# 
  1017  0117                     	;# 
  1018  0118                     	;# 
  1019  0119                     	;# 
  1020  011D                     	;# 
  1021  011D                     	;# 
  1022  011E                     	;# 
  1023  011F                     	;# 
  1024  018C                     	;# 
  1025  018D                     	;# 
  1026  0191                     	;# 
  1027  0191                     	;# 
  1028  0192                     	;# 
  1029  0193                     	;# 
  1030  0193                     	;# 
  1031  0193                     	;# 
  1032  0194                     	;# 
  1033  0195                     	;# 
  1034  0196                     	;# 
  1035  0197                     	;# 
  1036  0199                     	;# 
  1037  0199                     	;# 
  1038  0199                     	;# 
  1039  019A                     	;# 
  1040  019A                     	;# 
  1041  019A                     	;# 
  1042  019B                     	;# 
  1043  019B                     	;# 
  1044  019B                     	;# 
  1045  019B                     	;# 
  1046  019B                     	;# 
  1047  019C                     	;# 
  1048  019C                     	;# 
  1049  019C                     	;# 
  1050  019D                     	;# 
  1051  019D                     	;# 
  1052  019D                     	;# 
  1053  019E                     	;# 
  1054  019E                     	;# 
  1055  019E                     	;# 
  1056  019F                     	;# 
  1057  019F                     	;# 
  1058  019F                     	;# 
  1059  019F                     	;# 
  1060  019F                     	;# 
  1061  020C                     	;# 
  1062  020D                     	;# 
  1063  020E                     	;# 
  1064  0210                     	;# 
  1065  0211                     	;# 
  1066  0211                     	;# 
  1067  0212                     	;# 
  1068  0212                     	;# 
  1069  0213                     	;# 
  1070  0213                     	;# 
  1071  0214                     	;# 
  1072  0214                     	;# 
  1073  0215                     	;# 
  1074  0215                     	;# 
  1075  0215                     	;# 
  1076  0216                     	;# 
  1077  0216                     	;# 
  1078  0217                     	;# 
  1079  0217                     	;# 
  1080  028C                     	;# 
  1081  028D                     	;# 
  1082  028E                     	;# 
  1083  0291                     	;# 
  1084  0291                     	;# 
  1085  0292                     	;# 
  1086  0293                     	;# 
  1087  0298                     	;# 
  1088  0298                     	;# 
  1089  0299                     	;# 
  1090  029A                     	;# 
  1091  030C                     	;# 
  1092  030D                     	;# 
  1093  030E                     	;# 
  1094  038C                     	;# 
  1095  038D                     	;# 
  1096  038E                     	;# 
  1097  0390                     	;# 
  1098  0391                     	;# 
  1099  0392                     	;# 
  1100  0393                     	;# 
  1101  0394                     	;# 
  1102  0395                     	;# 
  1103  0396                     	;# 
  1104  0397                     	;# 
  1105  0398                     	;# 
  1106  0399                     	;# 
  1107  039D                     	;# 
  1108  039E                     	;# 
  1109  039F                     	;# 
  1110  0511                     	;# 
  1111  0513                     	;# 
  1112  051A                     	;# 
  1113  0811                     	;# 
  1114  0812                     	;# 
  1115  0813                     	;# 
  1116  0814                     	;# 
  1117  0815                     	;# 
  1118  0816                     	;# 
  1119  0817                     	;# 
  1120  0818                     	;# 
  1121  0819                     	;# 
  1122  081A                     	;# 
  1123  081B                     	;# 
  1124  081C                     	;# 
  1125  081D                     	;# 
  1126  081E                     	;# 
  1127  081F                     	;# 
  1128  0820                     	;# 
  1129  0821                     	;# 
  1130  0821                     	;# 
  1131  0822                     	;# 
  1132  0823                     	;# 
  1133  0823                     	;# 
  1134  0824                     	;# 
  1135  0825                     	;# 
  1136  0825                     	;# 
  1137  0826                     	;# 
  1138  0827                     	;# 
  1139  0827                     	;# 
  1140  0828                     	;# 
  1141  0829                     	;# 
  1142  082A                     	;# 
  1143  082B                     	;# 
  1144  082C                     	;# 
  1145  082D                     	;# 
  1146  082E                     	;# 
  1147  082F                     	;# 
  1148  0831                     	;# 
  1149  0832                     	;# 
  1150  0833                     	;# 
  1151  0834                     	;# 
  1152  0835                     	;# 
  1153  0836                     	;# 
  1154  0837                     	;# 
  1155  0838                     	;# 
  1156  0839                     	;# 
  1157  083A                     	;# 
  1158  083B                     	;# 
  1159  083C                     	;# 
  1160  083D                     	;# 
  1161  083E                     	;# 
  1162  083F                     	;# 
  1163  0840                     	;# 
  1164  0841                     	;# 
  1165  0841                     	;# 
  1166  0842                     	;# 
  1167  0843                     	;# 
  1168  0843                     	;# 
  1169  0844                     	;# 
  1170  0845                     	;# 
  1171  0845                     	;# 
  1172  0846                     	;# 
  1173  0847                     	;# 
  1174  0847                     	;# 
  1175  0848                     	;# 
  1176  0849                     	;# 
  1177  084A                     	;# 
  1178  084B                     	;# 
  1179  084C                     	;# 
  1180  084D                     	;# 
  1181  084E                     	;# 
  1182  084F                     	;# 
  1183  0FE4                     	;# 
  1184  0FE5                     	;# 
  1185  0FE6                     	;# 
  1186  0FE7                     	;# 
  1187  0FE8                     	;# 
  1188  0FE9                     	;# 
  1189  0FEA                     	;# 
  1190  0FEB                     	;# 
  1191  0FED                     	;# 
  1192  0FEE                     	;# 
  1193  0FEF                     	;# 
  1194  0000                     	;# 
  1195  0001                     	;# 
  1196  0002                     	;# 
  1197  0003                     	;# 
  1198  0004                     	;# 
  1199  0005                     	;# 
  1200  0006                     	;# 
  1201  0007                     	;# 
  1202  0008                     	;# 
  1203  0009                     	;# 
  1204  000A                     	;# 
  1205  000B                     	;# 
  1206  000C                     	;# 
  1207  000D                     	;# 
  1208  000E                     	;# 
  1209  0010                     	;# 
  1210  0011                     	;# 
  1211  0012                     	;# 
  1212  0014                     	;# 
  1213  0015                     	;# 
  1214  0016                     	;# 
  1215  0016                     	;# 
  1216  0017                     	;# 
  1217  0018                     	;# 
  1218  0019                     	;# 
  1219  001A                     	;# 
  1220  001B                     	;# 
  1221  001C                     	;# 
  1222  008C                     	;# 
  1223  008D                     	;# 
  1224  008E                     	;# 
  1225  0090                     	;# 
  1226  0091                     	;# 
  1227  0092                     	;# 
  1228  0094                     	;# 
  1229  0095                     	;# 
  1230  0096                     	;# 
  1231  0097                     	;# 
  1232  0098                     	;# 
  1233  0099                     	;# 
  1234  009A                     	;# 
  1235  009B                     	;# 
  1236  009B                     	;# 
  1237  009C                     	;# 
  1238  009D                     	;# 
  1239  009E                     	;# 
  1240  009F                     	;# 
  1241  010C                     	;# 
  1242  010D                     	;# 
  1243  010E                     	;# 
  1244  0111                     	;# 
  1245  0112                     	;# 
  1246  0113                     	;# 
  1247  0114                     	;# 
  1248  0115                     	;# 
  1249  0116                     	;# 
  1250  0117                     	;# 
  1251  0118                     	;# 
  1252  0119                     	;# 
  1253  011D                     	;# 
  1254  011D                     	;# 
  1255  011E                     	;# 
  1256  011F                     	;# 
  1257  018C                     	;# 
  1258  018D                     	;# 
  1259  0191                     	;# 
  1260  0191                     	;# 
  1261  0192                     	;# 
  1262  0193                     	;# 
  1263  0193                     	;# 
  1264  0193                     	;# 
  1265  0194                     	;# 
  1266  0195                     	;# 
  1267  0196                     	;# 
  1268  0197                     	;# 
  1269  0199                     	;# 
  1270  0199                     	;# 
  1271  0199                     	;# 
  1272  019A                     	;# 
  1273  019A                     	;# 
  1274  019A                     	;# 
  1275  019B                     	;# 
  1276  019B                     	;# 
  1277  019B                     	;# 
  1278  019B                     	;# 
  1279  019B                     	;# 
  1280  019C                     	;# 
  1281  019C                     	;# 
  1282  019C                     	;# 
  1283  019D                     	;# 
  1284  019D                     	;# 
  1285  019D                     	;# 
  1286  019E                     	;# 
  1287  019E                     	;# 
  1288  019E                     	;# 
  1289  019F                     	;# 
  1290  019F                     	;# 
  1291  019F                     	;# 
  1292  019F                     	;# 
  1293  019F                     	;# 
  1294  020C                     	;# 
  1295  020D                     	;# 
  1296  020E                     	;# 
  1297  0210                     	;# 
  1298  0211                     	;# 
  1299  0211                     	;# 
  1300  0212                     	;# 
  1301  0212                     	;# 
  1302  0213                     	;# 
  1303  0213                     	;# 
  1304  0214                     	;# 
  1305  0214                     	;# 
  1306  0215                     	;# 
  1307  0215                     	;# 
  1308  0215                     	;# 
  1309  0216                     	;# 
  1310  0216                     	;# 
  1311  0217                     	;# 
  1312  0217                     	;# 
  1313  028C                     	;# 
  1314  028D                     	;# 
  1315  028E                     	;# 
  1316  0291                     	;# 
  1317  0291                     	;# 
  1318  0292                     	;# 
  1319  0293                     	;# 
  1320  0298                     	;# 
  1321  0298                     	;# 
  1322  0299                     	;# 
  1323  029A                     	;# 
  1324  030C                     	;# 
  1325  030D                     	;# 
  1326  030E                     	;# 
  1327  038C                     	;# 
  1328  038D                     	;# 
  1329  038E                     	;# 
  1330  0390                     	;# 
  1331  0391                     	;# 
  1332  0392                     	;# 
  1333  0393                     	;# 
  1334  0394                     	;# 
  1335  0395                     	;# 
  1336  0396                     	;# 
  1337  0397                     	;# 
  1338  0398                     	;# 
  1339  0399                     	;# 
  1340  039D                     	;# 
  1341  039E                     	;# 
  1342  039F                     	;# 
  1343  0511                     	;# 
  1344  0513                     	;# 
  1345  051A                     	;# 
  1346  0811                     	;# 
  1347  0812                     	;# 
  1348  0813                     	;# 
  1349  0814                     	;# 
  1350  0815                     	;# 
  1351  0816                     	;# 
  1352  0817                     	;# 
  1353  0818                     	;# 
  1354  0819                     	;# 
  1355  081A                     	;# 
  1356  081B                     	;# 
  1357  081C                     	;# 
  1358  081D                     	;# 
  1359  081E                     	;# 
  1360  081F                     	;# 
  1361  0820                     	;# 
  1362  0821                     	;# 
  1363  0821                     	;# 
  1364  0822                     	;# 
  1365  0823                     	;# 
  1366  0823                     	;# 
  1367  0824                     	;# 
  1368  0825                     	;# 
  1369  0825                     	;# 
  1370  0826                     	;# 
  1371  0827                     	;# 
  1372  0827                     	;# 
  1373  0828                     	;# 
  1374  0829                     	;# 
  1375  082A                     	;# 
  1376  082B                     	;# 
  1377  082C                     	;# 
  1378  082D                     	;# 
  1379  082E                     	;# 
  1380  082F                     	;# 
  1381  0831                     	;# 
  1382  0832                     	;# 
  1383  0833                     	;# 
  1384  0834                     	;# 
  1385  0835                     	;# 
  1386  0836                     	;# 
  1387  0837                     	;# 
  1388  0838                     	;# 
  1389  0839                     	;# 
  1390  083A                     	;# 
  1391  083B                     	;# 
  1392  083C                     	;# 
  1393  083D                     	;# 
  1394  083E                     	;# 
  1395  083F                     	;# 
  1396  0840                     	;# 
  1397  0841                     	;# 
  1398  0841                     	;# 
  1399  0842                     	;# 
  1400  0843                     	;# 
  1401  0843                     	;# 
  1402  0844                     	;# 
  1403  0845                     	;# 
  1404  0845                     	;# 
  1405  0846                     	;# 
  1406  0847                     	;# 
  1407  0847                     	;# 
  1408  0848                     	;# 
  1409  0849                     	;# 
  1410  084A                     	;# 
  1411  084B                     	;# 
  1412  084C                     	;# 
  1413  084D                     	;# 
  1414  084E                     	;# 
  1415  084F                     	;# 
  1416  0FE4                     	;# 
  1417  0FE5                     	;# 
  1418  0FE6                     	;# 
  1419  0FE7                     	;# 
  1420  0FE8                     	;# 
  1421  0FE9                     	;# 
  1422  0FEA                     	;# 
  1423  0FEB                     	;# 
  1424  0FED                     	;# 
  1425  0FEE                     	;# 
  1426  0FEF                     	;I2C_StatusCallback@EEPROM_Buffer
  1427                           
  1428                           	psect	idataCOMMON
  1429  02E2                     __pidataCOMMON:	
  1430                           
  1431                           ;initializer for _I2C_slaveWriteData
  1432  02E2  3455               	retlw	85
  1433                           
  1434                           	psect	idataBIGRAM
  1435  0079                     __pidataBIGRAM:	
  1436                           
  1437                           ;initializer for I2C_StatusCallback@EEPROM_Buffer
  1438  0079  3400               	retlw	0
  1439  007A  3401               	retlw	1
  1440  007B  3402               	retlw	2
  1441  007C  3403               	retlw	3
  1442  007D  3404               	retlw	4
  1443  007E  3405               	retlw	5
  1444  007F  3406               	retlw	6
  1445  0080  3407               	retlw	7
  1446  0081  3408               	retlw	8
  1447  0082  3409               	retlw	9
  1448  0083  340A               	retlw	10
  1449  0084  340B               	retlw	11
  1450  0085  340C               	retlw	12
  1451  0086  340D               	retlw	13
  1452  0087  340E               	retlw	14
  1453  0088  340F               	retlw	15
  1454  0089  3410               	retlw	16
  1455  008A  3411               	retlw	17
  1456  008B  3412               	retlw	18
  1457  008C  3413               	retlw	19
  1458  008D  3414               	retlw	20
  1459  008E  3415               	retlw	21
  1460  008F  3416               	retlw	22
  1461  0090  3417               	retlw	23
  1462  0091  3418               	retlw	24
  1463  0092  3419               	retlw	25
  1464  0093  341A               	retlw	26
  1465  0094  341B               	retlw	27
  1466  0095  341C               	retlw	28
  1467  0096  341D               	retlw	29
  1468  0097  341E               	retlw	30
  1469  0098  341F               	retlw	31
  1470  0099  3420               	retlw	32
  1471  009A  3421               	retlw	33
  1472  009B  3422               	retlw	34
  1473  009C  3423               	retlw	35
  1474  009D  3424               	retlw	36
  1475  009E  3425               	retlw	37
  1476  009F  3426               	retlw	38
  1477  00A0  3427               	retlw	39
  1478  00A1  3428               	retlw	40
  1479  00A2  3429               	retlw	41
  1480  00A3  342A               	retlw	42
  1481  00A4  342B               	retlw	43
  1482  00A5  342C               	retlw	44
  1483  00A6  342D               	retlw	45
  1484  00A7  342E               	retlw	46
  1485  00A8  342F               	retlw	47
  1486  00A9  3430               	retlw	48
  1487  00AA  3431               	retlw	49
  1488  00AB  3432               	retlw	50
  1489  00AC  3433               	retlw	51
  1490  00AD  3434               	retlw	52
  1491  00AE  3435               	retlw	53
  1492  00AF  3436               	retlw	54
  1493  00B0  3437               	retlw	55
  1494  00B1  3438               	retlw	56
  1495  00B2  3439               	retlw	57
  1496  00B3  343A               	retlw	58
  1497  00B4  343B               	retlw	59
  1498  00B5  343C               	retlw	60
  1499  00B6  343D               	retlw	61
  1500  00B7  343E               	retlw	62
  1501  00B8  343F               	retlw	63
  1502  00B9  3440               	retlw	64
  1503  00BA  3441               	retlw	65
  1504  00BB  3442               	retlw	66
  1505  00BC  3443               	retlw	67
  1506  00BD  3444               	retlw	68
  1507  00BE  3445               	retlw	69
  1508  00BF  3446               	retlw	70
  1509  00C0  3447               	retlw	71
  1510  00C1  3448               	retlw	72
  1511  00C2  3449               	retlw	73
  1512  00C3  344A               	retlw	74
  1513  00C4  344B               	retlw	75
  1514  00C5  344C               	retlw	76
  1515  00C6  344D               	retlw	77
  1516  00C7  344E               	retlw	78
  1517  00C8  344F               	retlw	79
  1518  00C9  3450               	retlw	80
  1519  00CA  3451               	retlw	81
  1520  00CB  3452               	retlw	82
  1521  00CC  3453               	retlw	83
  1522  00CD  3454               	retlw	84
  1523  00CE  3455               	retlw	85
  1524  00CF  3456               	retlw	86
  1525  00D0  3457               	retlw	87
  1526  00D1  3458               	retlw	88
  1527  00D2  3459               	retlw	89
  1528  00D3  345A               	retlw	90
  1529  00D4  345B               	retlw	91
  1530  00D5  345C               	retlw	92
  1531  00D6  345D               	retlw	93
  1532  00D7  345E               	retlw	94
  1533  00D8  345F               	retlw	95
  1534  00D9  3460               	retlw	96
  1535  00DA  3461               	retlw	97
  1536  00DB  3462               	retlw	98
  1537  00DC  3463               	retlw	99
  1538  00DD  3464               	retlw	100
  1539  00DE  3465               	retlw	101
  1540  00DF  3466               	retlw	102
  1541  00E0  3467               	retlw	103
  1542  00E1  3468               	retlw	104
  1543  00E2  3469               	retlw	105
  1544  00E3  346A               	retlw	106
  1545  00E4  346B               	retlw	107
  1546  00E5  346C               	retlw	108
  1547  00E6  346D               	retlw	109
  1548  00E7  346E               	retlw	110
  1549  00E8  346F               	retlw	111
  1550  00E9  3470               	retlw	112
  1551  00EA  3471               	retlw	113
  1552  00EB  3472               	retlw	114
  1553  00EC  3473               	retlw	115
  1554  00ED  3474               	retlw	116
  1555  00EE  3475               	retlw	117
  1556  00EF  3476               	retlw	118
  1557  00F0  3477               	retlw	119
  1558  00F1  3478               	retlw	120
  1559  00F2  3479               	retlw	121
  1560  00F3  347A               	retlw	122
  1561  00F4  347B               	retlw	123
  1562  00F5  347C               	retlw	124
  1563  00F6  347D               	retlw	125
  1564  00F7  347E               	retlw	126
  1565  00F8  347F               	retlw	127
  1566  000B                     _INTCONbits	set	11
  1567  0011                     _PIR1bits	set	17
  1568  0015                     _TMR0	set	21
  1569  0095                     _OPTION_REGbits	set	149
  1570  0099                     _OSCCON	set	153
  1571  0099                     _OSCCONbits	set	153
  1572  009A                     _OSCSTAT	set	154
  1573  0098                     _OSCTUNE	set	152
  1574  0091                     _PIE1bits	set	145
  1575  008C                     _TRISA	set	140
  1576  008D                     _TRISB	set	141
  1577  008E                     _TRISC	set	142
  1578  008E                     _TRISCbits	set	142
  1579  0090                     _TRISE	set	144
  1580  011D                     _APFCON	set	285
  1581  010C                     _LATA	set	268
  1582  010D                     _LATB	set	269
  1583  010E                     _LATC	set	270
  1584  010E                     _LATCbits	set	270
  1585  018C                     _ANSELA	set	396
  1586  018D                     _ANSELB	set	397
  1587  0212                     _SSP1ADD	set	530
  1588  0211                     _SSP1BUF	set	529
  1589  0216                     _SSP1CON2	set	534
  1590  0216                     _SSP1CON2bits	set	534
  1591  0217                     _SSP1CON3	set	535
  1592  0213                     _SSP1MSK	set	531
  1593  0214                     _SSP1STAT	set	532
  1594  0214                     _SSP1STATbits	set	532
  1595  0215                     _SSPCON1	set	533
  1596  0215                     _SSPCON1bits	set	533
  1597  020C                     _WPUA	set	524
  1598  020D                     _WPUB	set	525
  1599  020E                     _WPUC	set	526
  1600  0210                     _WPUE	set	528
  1601                           
  1602                           ; #config settings
  1603  0000                     
  1604                           	psect	cinit
  1605  005C                     start_initialization:	
  1606  005C                     __initialization:		;BIGRAM
  1607                           
  1608                           ; Clear objects allocated to COMMON
  1609  005C  01FA               	clrf	__pbssCOMMON& (0+127)
  1610  005D  01FB               	clrf	(__pbssCOMMON+1)& (0+127)
  1611                           
  1612                           ; Clear objects allocated to BANK0
  1613  005E  01B3               	clrf	__pbssBANK0& (0+127)
  1614  005F  01B4               	clrf	(__pbssBANK0+1)& (0+127)
  1615  0060  01B5               	clrf	(__pbssBANK0+2)& (0+127)
  1616  0061  01B6               	clrf	(__pbssBANK0+3)& (0+127)
  1617  0062  01B7               	clrf	(__pbssBANK0+4)& (0+127)
  1618  0063  01B8               	clrf	(__pbssBANK0+5)& (0+127)
  1619                           
  1620                           ; Initialize objects allocated to BIGRAM
  1621  0064  3079               	movlw	low __pidataBIGRAM
  1622  0065  0084               	movwf	4
  1623  0066  3080               	movlw	(high __pidataBIGRAM)| (0+128)
  1624  0067  0085               	movwf	5
  1625  0068  3070               	movlw	low (0+8560)
  1626  0069  0086               	movwf	6
  1627  006A  3021               	movlw	high (0+8560)
  1628  006B  0087               	movwf	7
  1629  006C  3000               	movlw	0
  1630  006D  00FF               	movwf	btemp+1
  1631  006E  3080               	movlw	128
  1632  006F  3182  22C0  3180   	fcall	init_ram
  1633                           
  1634                           ; Initialize objects allocated to COMMON
  1635  0072  3182  22E2         	fcall	__pidataCOMMON	;fetch initializer
  1636  0074  00FC               	movwf	__pdataCOMMON& (0+127)
  1637  0075                     end_of_initialization:	
  1638                           ;End of C runtime variable initialization code
  1639                           
  1640  0075                     __end_of__initialization:	
  1641  0075  107E               	bcf	pic14e$flags,0	;clear compiler interrupt flag
  1642  0076  0020               	movlb	0
  1643  0077  3180  28F9         	ljmp	_main	;jump to C main() function
  1644                           
  1645                           	psect	bssCOMMON
  1646  007A                     __pbssCOMMON:	
  1647  007A                     I2C_StatusCallback@eepromAddress:	
  1648  007A                     	ds	1
  1649  007B                     I2C_StatusCallback@slaveWriteType:	
  1650  007B                     	ds	1
  1651                           
  1652                           	psect	dataCOMMON
  1653  007C                     __pdataCOMMON:	
  1654  007C                     _I2C_slaveWriteData:	
  1655  007C                     	ds	1
  1656                           
  1657                           	psect	bssBANK0
  1658  0033                     __pbssBANK0:	
  1659  0033                     _tick_us1:	
  1660  0033                     	ds	4
  1661  0037                     _timer24overflow:	
  1662  0037                     	ds	2
  1663                           
  1664                           	psect	inittext
  1665  02C0                     init_ram:	
  1666  02C0  00FE               	movwf	126
  1667  02C1                     initloop:	
  1668  02C1  0012               	moviw fsr0++
  1669  02C2  001E               	movwi fsr1++
  1670  02C3  3001               	movlw	1
  1671  02C4  02FE               	subwf	126,f
  1672  02C5  3000               	movlw	0
  1673  02C6  3BFF               	subwfb	127,f
  1674  02C7  087F               	movf	127,w
  1675  02C8  047E               	iorwf	126,w
  1676  02C9  1903               	btfsc	3,2
  1677  02CA  3400               	retlw	0
  1678  02CB  2AC1               	goto	initloop
  1679                           
  1680                           	psect	cstackCOMMON
  1681  0070                     __pcstackCOMMON:	
  1682  0070                     ?_SYSTEM_Initialize:	
  1683  0070                     ?_SetClockSpeed:	
  1684                           ; 0 bytes @ 0x0
  1685                           
  1686  0070                     ?_I2C_ISR:	
  1687                           ; 0 bytes @ 0x0
  1688                           
  1689  0070                     ?_I2C_StatusCallback:	
  1690                           ; 0 bytes @ 0x0
  1691                           
  1692  0070                     ??_I2C_StatusCallback:	
  1693                           ; 0 bytes @ 0x0
  1694                           
  1695  0070                     ?_OSCILLATOR_Initialize:	
  1696                           ; 0 bytes @ 0x0
  1697                           
  1698  0070                     ?_PIN_MANAGER_Initialize:	
  1699                           ; 0 bytes @ 0x0
  1700                           
  1701  0070                     ?_INTERRUPT_InterruptManager:	
  1702                           ; 0 bytes @ 0x0
  1703                           
  1704  0070                     ?_I2C_Initialize:	
  1705                           ; 0 bytes @ 0x0
  1706                           
  1707  0070                     ?_main:	
  1708                           ; 0 bytes @ 0x0
  1709                           
  1710                           
  1711                           ; 2 bytes @ 0x0
  1712  0070                     	ds	2
  1713  0072                     I2C_StatusCallback@i2c_bus_state:	
  1714                           
  1715                           ; 1 bytes @ 0x2
  1716  0072                     	ds	1
  1717  0073                     ??_I2C_ISR:	
  1718                           
  1719                           ; 0 bytes @ 0x3
  1720  0073                     	ds	1
  1721  0074                     I2C_ISR@i2c_data:	
  1722                           
  1723                           ; 1 bytes @ 0x4
  1724  0074                     	ds	1
  1725  0075                     ??_INTERRUPT_InterruptManager:	
  1726                           
  1727                           ; 0 bytes @ 0x5
  1728  0075                     	ds	5
  1729                           
  1730                           	psect	cstackBANK0
  1731  0020                     __pcstackBANK0:	
  1732  0020                     ??_SYSTEM_Initialize:	
  1733  0020                     ??_SetClockSpeed:	
  1734                           ; 0 bytes @ 0x0
  1735                           
  1736  0020                     ??_OSCILLATOR_Initialize:	
  1737                           ; 0 bytes @ 0x0
  1738                           
  1739  0020                     ??_PIN_MANAGER_Initialize:	
  1740                           ; 0 bytes @ 0x0
  1741                           
  1742  0020                     ??_I2C_Initialize:	
  1743                           ; 0 bytes @ 0x0
  1744                           
  1745  0020                     ?_CheckTick24Timer:	
  1746                           ; 0 bytes @ 0x0
  1747                           
  1748  0020                     ?_Tick24BitTimer:	
  1749                           ; 2 bytes @ 0x0
  1750                           
  1751  0020                     Tick24BitTimer@timer4:	
  1752                           ; 4 bytes @ 0x0
  1753                           
  1754  0020                     CheckTick24Timer@timeout:	
  1755                           ; 4 bytes @ 0x0
  1756                           
  1757                           
  1758                           ; 4 bytes @ 0x0
  1759  0020                     	ds	4
  1760  0024                     ??_Tick24BitTimer:	
  1761  0024                     ??_CheckTick24Timer:	
  1762                           ; 0 bytes @ 0x4
  1763                           
  1764                           
  1765                           ; 0 bytes @ 0x4
  1766  0024                     	ds	4
  1767  0028                     Tick24BitTimer@temp:	
  1768                           
  1769                           ; 4 bytes @ 0x8
  1770  0028                     	ds	4
  1771  002C                     ??_main:	
  1772                           
  1773                           ; 0 bytes @ 0xC
  1774  002C                     	ds	3
  1775  002F                     main@sysLED:	
  1776                           
  1777                           ; 4 bytes @ 0xF
  1778  002F                     	ds	4
  1779                           
  1780                           	psect	maintext
  1781  00F9                     __pmaintext:	
  1782 ;;
  1783 ;;Main: autosize = 0, tempsize = 3, incstack = 0, save=0
  1784 ;;
  1785 ;; *************** function _main *****************
  1786 ;; Defined at:
  1787 ;;		line 44 in file "main.c"
  1788 ;; Parameters:    Size  Location     Type
  1789 ;;		None
  1790 ;; Auto vars:     Size  Location     Type
  1791 ;;  sysLED          4   15[BANK0 ] unsigned long 
  1792 ;; Return value:  Size  Location     Type
  1793 ;;                  2   30[COMMON] int 
  1794 ;; Registers used:
  1795 ;;		wreg, status,2, status,0, pclath, cstack
  1796 ;; Tracked objects:
  1797 ;;		On entry : 17F/0
  1798 ;;		On exit  : 0/0
  1799 ;;		Unchanged: 0/0
  1800 ;; Data sizes:     COMMON   BANK0   BANK1   BANK2   BANK3   BANK4   BANK5   BANK6
  1801 ;;      Params:         0       0       0       0       0       0       0       0
  1802 ;;      Locals:         0       4       0       0       0       0       0       0
  1803 ;;      Temps:          0       3       0       0       0       0       0       0
  1804 ;;      Totals:         0       7       0       0       0       0       0       0
  1805 ;;Total ram usage:        7 bytes
  1806 ;; Hardware stack levels required when called:    5
  1807 ;; This function calls:
  1808 ;;		_CheckTick24Timer
  1809 ;;		_SYSTEM_Initialize
  1810 ;;		_SetClockSpeed
  1811 ;;		_Tick24BitTimer
  1812 ;; This function is called by:
  1813 ;;		Startup code after reset
  1814 ;; This function uses a non-reentrant model
  1815 ;;
  1816                           
  1817                           
  1818                           ;psect for function _main
  1819  00F9                     _main:	
  1820                           
  1821                           ;main.c: 45: NB_TIMER_ sysLED = Tick24BitTimer(64000);
  1822                           
  1823                           ;incstack = 0
  1824                           ; Regs used in _main: [wreg+status,2+status,0+pclath+cstack]
  1825  00F9  3000               	movlw	0
  1826  00FA  0020               	movlb	0	; select bank0
  1827  00FB  00A3               	movwf	Tick24BitTimer@timer4+3
  1828  00FC  3000               	movlw	0
  1829  00FD  00A2               	movwf	Tick24BitTimer@timer4+2
  1830  00FE  30FA               	movlw	250
  1831  00FF  00A1               	movwf	Tick24BitTimer@timer4+1
  1832  0100  3000               	movlw	0
  1833  0101  00A0               	movwf	Tick24BitTimer@timer4
  1834  0102  3181  2169  3180   	fcall	_Tick24BitTimer
  1835  0105  0020               	movlb	0	; select bank0
  1836  0106  0823               	movf	?_Tick24BitTimer+3,w
  1837  0107  00B2               	movwf	main@sysLED+3
  1838  0108  0822               	movf	?_Tick24BitTimer+2,w
  1839  0109  00B1               	movwf	main@sysLED+2
  1840  010A  0821               	movf	?_Tick24BitTimer+1,w
  1841  010B  00B0               	movwf	main@sysLED+1
  1842  010C  0820               	movf	?_Tick24BitTimer,w
  1843  010D  00AF               	movwf	main@sysLED
  1844                           
  1845                           ;main.c: 48: OPTION_REGbits.TMR0CS = 0;
  1846  010E  0021               	movlb	1	; select bank1
  1847  010F  1295               	bcf	21,5	;volatile
  1848                           
  1849                           ;main.c: 49: OPTION_REGbits.TMR0SE = 0;
  1850  0110  1215               	bcf	21,4	;volatile
  1851                           
  1852                           ;main.c: 50: OPTION_REGbits.INTEDG = 1;
  1853  0111  1715               	bsf	21,6	;volatile
  1854                           
  1855                           ;main.c: 51: INTCONbits.TMR0IE = 1;
  1856  0112  168B               	bsf	11,5	;volatile
  1857                           
  1858                           ;main.c: 52: OPTION_REGbits.PSA =1;
  1859  0113  1595               	bsf	21,3	;volatile
  1860                           
  1861                           ;main.c: 92: SYSTEM_Initialize();
  1862  0114  3182  22CC  3180   	fcall	_SYSTEM_Initialize
  1863                           
  1864                           ;main.c: 94: TRISCbits.TRISC6 = 0;
  1865  0117  0021               	movlb	1	; select bank1
  1866  0118  130E               	bcf	14,6	;volatile
  1867                           
  1868                           ;main.c: 95: TRISCbits.TRISC7 = 0;
  1869  0119  138E               	bcf	14,7	;volatile
  1870                           
  1871                           ;main.c: 97: SetClockSpeed();
  1872  011A  3182  22D5  3180   	fcall	_SetClockSpeed
  1873                           
  1874                           ;main.c: 98: _delay((unsigned long)((1000)*(32000000/4000.0)));
  1875  011D  3029               	movlw	41
  1876  011E  0020               	movlb	0	; select bank0
  1877  011F  00AE               	movwf	??_main+2
  1878  0120  3096               	movlw	150
  1879  0121  00AD               	movwf	??_main+1
  1880  0122  30A6               	movlw	166
  1881  0123  00AC               	movwf	??_main
  1882  0124                     u317:	
  1883  0124  0BAC               	decfsz	??_main,f
  1884  0125  2924               	goto	u317
  1885  0126  0BAD               	decfsz	??_main+1,f
  1886  0127  2924               	goto	u317
  1887  0128  0BAE               	decfsz	??_main+2,f
  1888  0129  2924               	goto	u317
  1889                           
  1890                           ;main.c: 100: (INTCONbits.GIE = 1);
  1891  012A  178B               	bsf	11,7	;volatile
  1892                           
  1893                           ;main.c: 101: (INTCONbits.PEIE = 1);
  1894  012B  170B               	bsf	11,6	;volatile
  1895                           
  1896                           ;main.c: 103: LATCbits.LATC7 = 1;
  1897  012C  0022               	movlb	2	; select bank2
  1898  012D  178E               	bsf	14,7	;volatile
  1899  012E                     l959:	
  1900                           ;main.c: 104: while(1){
  1901                           
  1902                           
  1903                           ;main.c: 105: if(CheckTick24Timer(sysLED)){
  1904  012E  0020               	movlb	0	; select bank0
  1905  012F  0832               	movf	main@sysLED+3,w
  1906  0130  00A3               	movwf	CheckTick24Timer@timeout+3
  1907  0131  0831               	movf	main@sysLED+2,w
  1908  0132  00A2               	movwf	CheckTick24Timer@timeout+2
  1909  0133  0830               	movf	main@sysLED+1,w
  1910  0134  00A1               	movwf	CheckTick24Timer@timeout+1
  1911  0135  082F               	movf	main@sysLED,w
  1912  0136  00A0               	movwf	CheckTick24Timer@timeout
  1913  0137  3181  21C3  3180   	fcall	_CheckTick24Timer
  1914  013A  0020               	movlb	0	; select bank0
  1915  013B  0821               	movf	?_CheckTick24Timer+1,w
  1916  013C  0420               	iorwf	?_CheckTick24Timer,w
  1917  013D  1903               	skipnz
  1918  013E  292E               	goto	l959
  1919                           
  1920                           ;main.c: 106: sysLED = Tick24BitTimer(16000);
  1921  013F  3000               	movlw	0
  1922  0140  00A3               	movwf	Tick24BitTimer@timer4+3
  1923  0141  3000               	movlw	0
  1924  0142  00A2               	movwf	Tick24BitTimer@timer4+2
  1925  0143  303E               	movlw	62
  1926  0144  00A1               	movwf	Tick24BitTimer@timer4+1
  1927  0145  3080               	movlw	128
  1928  0146  00A0               	movwf	Tick24BitTimer@timer4
  1929  0147  3181  2169  3180   	fcall	_Tick24BitTimer
  1930  014A  0020               	movlb	0	; select bank0
  1931  014B  0823               	movf	?_Tick24BitTimer+3,w
  1932  014C  00B2               	movwf	main@sysLED+3
  1933  014D  0822               	movf	?_Tick24BitTimer+2,w
  1934  014E  00B1               	movwf	main@sysLED+2
  1935  014F  0821               	movf	?_Tick24BitTimer+1,w
  1936  0150  00B0               	movwf	main@sysLED+1
  1937  0151  0820               	movf	?_Tick24BitTimer,w
  1938  0152  00AF               	movwf	main@sysLED
  1939                           
  1940                           ;main.c: 107: LATCbits.LATC6 ^= 1;
  1941  0153  0022               	movlb	2	; select bank2
  1942  0154  0E0E               	swapf	14,w	;volatile
  1943  0155  0020               	movlb	0	; select bank0
  1944  0156  00AC               	movwf	??_main
  1945  0157  0CAC               	rrf	??_main,f
  1946  0158  0C2C               	rrf	??_main,w
  1947  0159  3901               	andlw	1
  1948  015A  00AC               	movwf	??_main
  1949  015B  3001               	movlw	1
  1950  015C  06AC               	xorwf	??_main,f
  1951  015D  0EAC               	swapf	??_main,f
  1952  015E  0DAC               	rlf	??_main,f
  1953  015F  0DAC               	rlf	??_main,f
  1954  0160  0022               	movlb	2	; select bank2
  1955  0161  080E               	movf	14,w	;volatile
  1956  0162  0020               	movlb	0	; select bank0
  1957  0163  062C               	xorwf	??_main,w
  1958  0164  39BF               	andlw	-65
  1959  0165  062C               	xorwf	??_main,w
  1960  0166  0022               	movlb	2	; select bank2
  1961  0167  008E               	movwf	14	;volatile
  1962  0168  292E               	goto	l959
  1963  0169                     __end_of_main:	
  1964                           ;main.c: 108: }
  1965                           ;main.c: 109: }
  1966                           ;main.c: 111: return 0;
  1967                           ;	Return value of _main is never used
  1968                           
  1969                           
  1970                           	psect	text1
  1971  0169                     __ptext1:	
  1972 ;; *************** function _Tick24BitTimer *****************
  1973 ;; Defined at:
  1974 ;;		line 30 in file "NB_Time.c"
  1975 ;; Parameters:    Size  Location     Type
  1976 ;;  timer4          4    0[BANK0 ] unsigned long 
  1977 ;; Auto vars:     Size  Location     Type
  1978 ;;  temp            4    8[BANK0 ] unsigned long 
  1979 ;; Return value:  Size  Location     Type
  1980 ;;                  4    0[BANK0 ] unsigned long 
  1981 ;; Registers used:
  1982 ;;		wreg
  1983 ;; Tracked objects:
  1984 ;;		On entry : 0/0
  1985 ;;		On exit  : 0/0
  1986 ;;		Unchanged: 0/0
  1987 ;; Data sizes:     COMMON   BANK0   BANK1   BANK2   BANK3   BANK4   BANK5   BANK6
  1988 ;;      Params:         0       4       0       0       0       0       0       0
  1989 ;;      Locals:         0       4       0       0       0       0       0       0
  1990 ;;      Temps:          0       4       0       0       0       0       0       0
  1991 ;;      Totals:         0      12       0       0       0       0       0       0
  1992 ;;Total ram usage:       12 bytes
  1993 ;; Hardware stack levels used:    1
  1994 ;; Hardware stack levels required when called:    3
  1995 ;; This function calls:
  1996 ;;		Nothing
  1997 ;; This function is called by:
  1998 ;;		_main
  1999 ;; This function uses a non-reentrant model
  2000 ;;
  2001                           
  2002                           
  2003                           ;psect for function _Tick24BitTimer
  2004  0169                     _Tick24BitTimer:	
  2005                           
  2006                           ;NB_Time.c: 31: NB_TIMER_ temp=0;
  2007                           
  2008                           ;incstack = 0
  2009                           ; Regs used in _Tick24BitTimer: [wreg]
  2010  0169  3000               	movlw	0
  2011  016A  0020               	movlb	0	; select bank0
  2012  016B  00AB               	movwf	Tick24BitTimer@temp+3
  2013  016C  3000               	movlw	0
  2014  016D  00AA               	movwf	Tick24BitTimer@temp+2
  2015  016E  3000               	movlw	0
  2016  016F  00A9               	movwf	Tick24BitTimer@temp+1
  2017  0170  3000               	movlw	0
  2018  0171  00A8               	movwf	Tick24BitTimer@temp
  2019                           
  2020                           ;NB_Time.c: 32: temp = timer4 + tick_us1;
  2021  0172  0820               	movf	Tick24BitTimer@timer4,w
  2022  0173  0733               	addwf	_tick_us1,w
  2023  0174  00A4               	movwf	??_Tick24BitTimer
  2024  0175  0821               	movf	Tick24BitTimer@timer4+1,w
  2025  0176  3D34               	addwfc	_tick_us1+1,w
  2026  0177  00A5               	movwf	??_Tick24BitTimer+1
  2027  0178  0822               	movf	Tick24BitTimer@timer4+2,w
  2028  0179  3D35               	addwfc	_tick_us1+2,w
  2029  017A  00A6               	movwf	??_Tick24BitTimer+2
  2030  017B  0823               	movf	Tick24BitTimer@timer4+3,w
  2031  017C  3D36               	addwfc	_tick_us1+3,w
  2032  017D  00A7               	movwf	??_Tick24BitTimer+3
  2033  017E  0827               	movf	??_Tick24BitTimer+3,w
  2034  017F  00AB               	movwf	Tick24BitTimer@temp+3
  2035  0180  0826               	movf	??_Tick24BitTimer+2,w
  2036  0181  00AA               	movwf	Tick24BitTimer@temp+2
  2037  0182  0825               	movf	??_Tick24BitTimer+1,w
  2038  0183  00A9               	movwf	Tick24BitTimer@temp+1
  2039  0184  0824               	movf	??_Tick24BitTimer,w
  2040  0185  00A8               	movwf	Tick24BitTimer@temp
  2041                           
  2042                           ;NB_Time.c: 33: if((temp&0x7FFFFF)>4800000){
  2043  0186  30FF               	movlw	255
  2044  0187  0528               	andwf	Tick24BitTimer@temp,w
  2045  0188  00A4               	movwf	??_Tick24BitTimer
  2046  0189  30FF               	movlw	255
  2047  018A  0529               	andwf	Tick24BitTimer@temp+1,w
  2048  018B  00A5               	movwf	??_Tick24BitTimer+1
  2049  018C  307F               	movlw	127
  2050  018D  052A               	andwf	Tick24BitTimer@temp+2,w
  2051  018E  00A6               	movwf	??_Tick24BitTimer+2
  2052  018F  3000               	movlw	0
  2053  0190  052B               	andwf	Tick24BitTimer@temp+3,w
  2054  0191  00A7               	movwf	??_Tick24BitTimer+3
  2055  0192  3000               	movlw	0
  2056  0193  0227               	subwf	??_Tick24BitTimer+3,w
  2057  0194  1D03               	skipz
  2058  0195  29A0               	goto	u185
  2059  0196  3049               	movlw	73
  2060  0197  0226               	subwf	??_Tick24BitTimer+2,w
  2061  0198  1D03               	skipz
  2062  0199  29A0               	goto	u185
  2063  019A  303E               	movlw	62
  2064  019B  0225               	subwf	??_Tick24BitTimer+1,w
  2065  019C  1D03               	skipz
  2066  019D  29A0               	goto	u185
  2067  019E  3001               	movlw	1
  2068  019F  0224               	subwf	??_Tick24BitTimer,w
  2069  01A0                     u185:	
  2070  01A0  1C03               	skipc
  2071  01A1  29BA               	goto	l171
  2072                           
  2073                           ;NB_Time.c: 34: temp -= 4800000;
  2074  01A2  3000               	movlw	0
  2075  01A3  00A4               	movwf	??_Tick24BitTimer
  2076  01A4  303E               	movlw	62
  2077  01A5  00A5               	movwf	??_Tick24BitTimer+1
  2078  01A6  3049               	movlw	73
  2079  01A7  00A6               	movwf	??_Tick24BitTimer+2
  2080  01A8  3000               	movlw	0
  2081  01A9  00A7               	movwf	??_Tick24BitTimer+3
  2082  01AA  0824               	movf	??_Tick24BitTimer,w
  2083  01AB  02A8               	subwf	Tick24BitTimer@temp,f
  2084  01AC  0825               	movf	??_Tick24BitTimer+1,w
  2085  01AD  3BA9               	subwfb	Tick24BitTimer@temp+1,f
  2086  01AE  0826               	movf	??_Tick24BitTimer+2,w
  2087  01AF  3BAA               	subwfb	Tick24BitTimer@temp+2,f
  2088  01B0  0827               	movf	??_Tick24BitTimer+3,w
  2089  01B1  3BAB               	subwfb	Tick24BitTimer@temp+3,f
  2090                           
  2091                           ;NB_Time.c: 35: temp ^= 0x800000;
  2092  01B2  3000               	movlw	0
  2093  01B3  06A8               	xorwf	Tick24BitTimer@temp,f
  2094  01B4  3000               	movlw	0
  2095  01B5  06A9               	xorwf	Tick24BitTimer@temp+1,f
  2096  01B6  3080               	movlw	128
  2097  01B7  06AA               	xorwf	Tick24BitTimer@temp+2,f
  2098  01B8  3000               	movlw	0
  2099  01B9  06AB               	xorwf	Tick24BitTimer@temp+3,f
  2100  01BA                     l171:	
  2101                           
  2102                           ;NB_Time.c: 36: }
  2103                           ;NB_Time.c: 44: return temp;
  2104  01BA  082B               	movf	Tick24BitTimer@temp+3,w
  2105  01BB  00A3               	movwf	?_Tick24BitTimer+3
  2106  01BC  082A               	movf	Tick24BitTimer@temp+2,w
  2107  01BD  00A2               	movwf	?_Tick24BitTimer+2
  2108  01BE  0829               	movf	Tick24BitTimer@temp+1,w
  2109  01BF  00A1               	movwf	?_Tick24BitTimer+1
  2110  01C0  0828               	movf	Tick24BitTimer@temp,w
  2111  01C1  00A0               	movwf	?_Tick24BitTimer
  2112  01C2  0008               	return
  2113  01C3                     __end_of_Tick24BitTimer:	
  2114                           
  2115                           	psect	text2
  2116  02D5                     __ptext2:	
  2117 ;; *************** function _SetClockSpeed *****************
  2118 ;; Defined at:
  2119 ;;		line 15 in file "NB_Time.c"
  2120 ;; Parameters:    Size  Location     Type
  2121 ;;		None
  2122 ;; Auto vars:     Size  Location     Type
  2123 ;;		None
  2124 ;; Return value:  Size  Location     Type
  2125 ;;		None               void
  2126 ;; Registers used:
  2127 ;;		wreg, status,2, status,0
  2128 ;; Tracked objects:
  2129 ;;		On entry : 0/0
  2130 ;;		On exit  : 0/0
  2131 ;;		Unchanged: 0/0
  2132 ;; Data sizes:     COMMON   BANK0   BANK1   BANK2   BANK3   BANK4   BANK5   BANK6
  2133 ;;      Params:         0       0       0       0       0       0       0       0
  2134 ;;      Locals:         0       0       0       0       0       0       0       0
  2135 ;;      Temps:          0       0       0       0       0       0       0       0
  2136 ;;      Totals:         0       0       0       0       0       0       0       0
  2137 ;;Total ram usage:        0 bytes
  2138 ;; Hardware stack levels used:    1
  2139 ;; Hardware stack levels required when called:    3
  2140 ;; This function calls:
  2141 ;;		Nothing
  2142 ;; This function is called by:
  2143 ;;		_main
  2144 ;; This function uses a non-reentrant model
  2145 ;;
  2146                           
  2147                           
  2148                           ;psect for function _SetClockSpeed
  2149  02D5                     _SetClockSpeed:	
  2150                           
  2151                           ;NB_Time.c: 17: OSCCONbits.SCS=0;
  2152                           
  2153                           ;incstack = 0
  2154                           ; Regs used in _SetClockSpeed: [wreg+status,2+status,0]
  2155  02D5  30FC               	movlw	-4
  2156  02D6  0021               	movlb	1	; select bank1
  2157  02D7  0599               	andwf	25,f	;volatile
  2158                           
  2159                           ;NB_Time.c: 18: OSCCONbits.IRCF= 0b1111;
  2160  02D8  3078               	movlw	120
  2161  02D9  0499               	iorwf	25,f	;volatile
  2162                           
  2163                           ;NB_Time.c: 19: OSCCONbits.SPLLEN = 1;
  2164  02DA  1799               	bsf	25,7	;volatile
  2165  02DB  0008               	return
  2166  02DC                     __end_of_SetClockSpeed:	
  2167                           ;NB_Time.c: 20: return;
  2168                           
  2169                           
  2170                           	psect	text3
  2171  02CC                     __ptext3:	
  2172 ;; *************** function _SYSTEM_Initialize *****************
  2173 ;; Defined at:
  2174 ;;		line 49 in file "mcc_generated_files/mcc.c"
  2175 ;; Parameters:    Size  Location     Type
  2176 ;;		None
  2177 ;; Auto vars:     Size  Location     Type
  2178 ;;		None
  2179 ;; Return value:  Size  Location     Type
  2180 ;;		None               void
  2181 ;; Registers used:
  2182 ;;		wreg, status,2, status,0, pclath, cstack
  2183 ;; Tracked objects:
  2184 ;;		On entry : 0/0
  2185 ;;		On exit  : 0/0
  2186 ;;		Unchanged: 0/0
  2187 ;; Data sizes:     COMMON   BANK0   BANK1   BANK2   BANK3   BANK4   BANK5   BANK6
  2188 ;;      Params:         0       0       0       0       0       0       0       0
  2189 ;;      Locals:         0       0       0       0       0       0       0       0
  2190 ;;      Temps:          0       0       0       0       0       0       0       0
  2191 ;;      Totals:         0       0       0       0       0       0       0       0
  2192 ;;Total ram usage:        0 bytes
  2193 ;; Hardware stack levels used:    1
  2194 ;; Hardware stack levels required when called:    4
  2195 ;; This function calls:
  2196 ;;		_I2C_Initialize
  2197 ;;		_OSCILLATOR_Initialize
  2198 ;;		_PIN_MANAGER_Initialize
  2199 ;; This function is called by:
  2200 ;;		_main
  2201 ;; This function uses a non-reentrant model
  2202 ;;
  2203                           
  2204                           
  2205                           ;psect for function _SYSTEM_Initialize
  2206  02CC                     _SYSTEM_Initialize:	
  2207                           
  2208                           ;mcc.c: 51: OSCILLATOR_Initialize();
  2209                           
  2210                           ;incstack = 0
  2211                           ; Regs used in _SYSTEM_Initialize: [wreg+status,2+status,0+pclath+cstack]
  2212  02CC  3182  22DC  3182   	fcall	_OSCILLATOR_Initialize
  2213                           
  2214                           ;mcc.c: 52: PIN_MANAGER_Initialize();
  2215  02CF  3182  2268  3182   	fcall	_PIN_MANAGER_Initialize
  2216                           
  2217                           ;mcc.c: 53: I2C_Initialize();
  2218  02D2  3182  22B0         	fcall	_I2C_Initialize
  2219  02D4  0008               	return
  2220  02D5                     __end_of_SYSTEM_Initialize:	
  2221                           
  2222                           	psect	text4
  2223  0268                     __ptext4:	
  2224 ;; *************** function _PIN_MANAGER_Initialize *****************
  2225 ;; Defined at:
  2226 ;;		line 50 in file "mcc_generated_files/pin_manager.c"
  2227 ;; Parameters:    Size  Location     Type
  2228 ;;		None
  2229 ;; Auto vars:     Size  Location     Type
  2230 ;;		None
  2231 ;; Return value:  Size  Location     Type
  2232 ;;		None               void
  2233 ;; Registers used:
  2234 ;;		wreg, status,2
  2235 ;; Tracked objects:
  2236 ;;		On entry : 0/0
  2237 ;;		On exit  : 0/0
  2238 ;;		Unchanged: 0/0
  2239 ;; Data sizes:     COMMON   BANK0   BANK1   BANK2   BANK3   BANK4   BANK5   BANK6
  2240 ;;      Params:         0       0       0       0       0       0       0       0
  2241 ;;      Locals:         0       0       0       0       0       0       0       0
  2242 ;;      Temps:          0       0       0       0       0       0       0       0
  2243 ;;      Totals:         0       0       0       0       0       0       0       0
  2244 ;;Total ram usage:        0 bytes
  2245 ;; Hardware stack levels used:    1
  2246 ;; Hardware stack levels required when called:    3
  2247 ;; This function calls:
  2248 ;;		Nothing
  2249 ;; This function is called by:
  2250 ;;		_SYSTEM_Initialize
  2251 ;; This function uses a non-reentrant model
  2252 ;;
  2253                           
  2254                           
  2255                           ;psect for function _PIN_MANAGER_Initialize
  2256  0268                     _PIN_MANAGER_Initialize:	
  2257                           
  2258                           ;pin_manager.c: 52: LATA = 0x00;
  2259                           
  2260                           ;incstack = 0
  2261                           ; Regs used in _PIN_MANAGER_Initialize: [wreg+status,2]
  2262  0268  0022               	movlb	2	; select bank2
  2263  0269  018C               	clrf	12	;volatile
  2264                           
  2265                           ;pin_manager.c: 53: TRISA = 0xFF;
  2266  026A  30FF               	movlw	255
  2267  026B  0021               	movlb	1	; select bank1
  2268  026C  008C               	movwf	12	;volatile
  2269                           
  2270                           ;pin_manager.c: 54: ANSELA = 0xBF;
  2271  026D  30BF               	movlw	191
  2272  026E  0023               	movlb	3	; select bank3
  2273  026F  008C               	movwf	12	;volatile
  2274                           
  2275                           ;pin_manager.c: 55: WPUA = 0x00;
  2276  0270  0024               	movlb	4	; select bank4
  2277  0271  018C               	clrf	12	;volatile
  2278                           
  2279                           ;pin_manager.c: 57: LATB = 0x00;
  2280  0272  0022               	movlb	2	; select bank2
  2281  0273  018D               	clrf	13	;volatile
  2282                           
  2283                           ;pin_manager.c: 58: TRISB = 0xFF;
  2284  0274  30FF               	movlw	255
  2285  0275  0021               	movlb	1	; select bank1
  2286  0276  008D               	movwf	13	;volatile
  2287                           
  2288                           ;pin_manager.c: 59: ANSELB = 0x3F;
  2289  0277  303F               	movlw	63
  2290  0278  0023               	movlb	3	; select bank3
  2291  0279  008D               	movwf	13	;volatile
  2292                           
  2293                           ;pin_manager.c: 60: WPUB = 0x00;
  2294  027A  0024               	movlb	4	; select bank4
  2295  027B  018D               	clrf	13	;volatile
  2296                           
  2297                           ;pin_manager.c: 62: LATC = 0x18;
  2298  027C  3018               	movlw	24
  2299  027D  0022               	movlb	2	; select bank2
  2300  027E  008E               	movwf	14	;volatile
  2301                           
  2302                           ;pin_manager.c: 63: TRISC = 0xFF;
  2303  027F  30FF               	movlw	255
  2304  0280  0021               	movlb	1	; select bank1
  2305  0281  008E               	movwf	14	;volatile
  2306                           
  2307                           ;pin_manager.c: 64: WPUC = 0x00;
  2308  0282  0024               	movlb	4	; select bank4
  2309  0283  018E               	clrf	14	;volatile
  2310                           
  2311                           ;pin_manager.c: 66: TRISE = 0x08;
  2312  0284  3008               	movlw	8
  2313  0285  0021               	movlb	1	; select bank1
  2314  0286  0090               	movwf	16	;volatile
  2315                           
  2316                           ;pin_manager.c: 67: WPUE = 0x00;
  2317  0287  0024               	movlb	4	; select bank4
  2318  0288  0190               	clrf	16	;volatile
  2319                           
  2320                           ;pin_manager.c: 69: OPTION_REGbits.nWPUEN = 0x01;
  2321  0289  0021               	movlb	1	; select bank1
  2322  028A  1795               	bsf	21,7	;volatile
  2323                           
  2324                           ;pin_manager.c: 71: APFCON = 0x00;
  2325  028B  0022               	movlb	2	; select bank2
  2326  028C  019D               	clrf	29	;volatile
  2327  028D  0008               	return
  2328  028E                     __end_of_PIN_MANAGER_Initialize:	
  2329                           
  2330                           	psect	text5
  2331  02DC                     __ptext5:	
  2332 ;; *************** function _OSCILLATOR_Initialize *****************
  2333 ;; Defined at:
  2334 ;;		line 56 in file "mcc_generated_files/mcc.c"
  2335 ;; Parameters:    Size  Location     Type
  2336 ;;		None
  2337 ;; Auto vars:     Size  Location     Type
  2338 ;;		None
  2339 ;; Return value:  Size  Location     Type
  2340 ;;		None               void
  2341 ;; Registers used:
  2342 ;;		wreg, status,2
  2343 ;; Tracked objects:
  2344 ;;		On entry : 0/0
  2345 ;;		On exit  : 0/0
  2346 ;;		Unchanged: 0/0
  2347 ;; Data sizes:     COMMON   BANK0   BANK1   BANK2   BANK3   BANK4   BANK5   BANK6
  2348 ;;      Params:         0       0       0       0       0       0       0       0
  2349 ;;      Locals:         0       0       0       0       0       0       0       0
  2350 ;;      Temps:          0       0       0       0       0       0       0       0
  2351 ;;      Totals:         0       0       0       0       0       0       0       0
  2352 ;;Total ram usage:        0 bytes
  2353 ;; Hardware stack levels used:    1
  2354 ;; Hardware stack levels required when called:    3
  2355 ;; This function calls:
  2356 ;;		Nothing
  2357 ;; This function is called by:
  2358 ;;		_SYSTEM_Initialize
  2359 ;; This function uses a non-reentrant model
  2360 ;;
  2361                           
  2362                           
  2363                           ;psect for function _OSCILLATOR_Initialize
  2364  02DC                     _OSCILLATOR_Initialize:	
  2365                           
  2366                           ;mcc.c: 59: OSCCON = 0x78;
  2367                           
  2368                           ;incstack = 0
  2369                           ; Regs used in _OSCILLATOR_Initialize: [wreg+status,2]
  2370  02DC  3078               	movlw	120
  2371  02DD  0021               	movlb	1	; select bank1
  2372  02DE  0099               	movwf	25	;volatile
  2373                           
  2374                           ;mcc.c: 61: OSCSTAT = 0x00;
  2375  02DF  019A               	clrf	26	;volatile
  2376                           
  2377                           ;mcc.c: 63: OSCTUNE = 0x00;
  2378  02E0  0198               	clrf	24	;volatile
  2379  02E1  0008               	return
  2380  02E2                     __end_of_OSCILLATOR_Initialize:	
  2381                           
  2382                           	psect	text6
  2383  02B0                     __ptext6:	
  2384 ;; *************** function _I2C_Initialize *****************
  2385 ;; Defined at:
  2386 ;;		line 82 in file "mcc_generated_files/i2c.c"
  2387 ;; Parameters:    Size  Location     Type
  2388 ;;		None
  2389 ;; Auto vars:     Size  Location     Type
  2390 ;;		None
  2391 ;; Return value:  Size  Location     Type
  2392 ;;		None               void
  2393 ;; Registers used:
  2394 ;;		wreg, status,2
  2395 ;; Tracked objects:
  2396 ;;		On entry : 0/0
  2397 ;;		On exit  : 0/0
  2398 ;;		Unchanged: 0/0
  2399 ;; Data sizes:     COMMON   BANK0   BANK1   BANK2   BANK3   BANK4   BANK5   BANK6
  2400 ;;      Params:         0       0       0       0       0       0       0       0
  2401 ;;      Locals:         0       0       0       0       0       0       0       0
  2402 ;;      Temps:          0       0       0       0       0       0       0       0
  2403 ;;      Totals:         0       0       0       0       0       0       0       0
  2404 ;;Total ram usage:        0 bytes
  2405 ;; Hardware stack levels used:    1
  2406 ;; Hardware stack levels required when called:    3
  2407 ;; This function calls:
  2408 ;;		Nothing
  2409 ;; This function is called by:
  2410 ;;		_SYSTEM_Initialize
  2411 ;; This function uses a non-reentrant model
  2412 ;;
  2413                           
  2414                           
  2415                           ;psect for function _I2C_Initialize
  2416  02B0                     _I2C_Initialize:	
  2417                           
  2418                           ;i2c.c: 86: SSP1STAT = 0x00;
  2419                           
  2420                           ;incstack = 0
  2421                           ; Regs used in _I2C_Initialize: [wreg+status,2]
  2422  02B0  0024               	movlb	4	; select bank4
  2423  02B1  0194               	clrf	20	;volatile
  2424                           
  2425                           ;i2c.c: 88: SSPCON1 = 0x2E;
  2426  02B2  302E               	movlw	46
  2427  02B3  0095               	movwf	21	;volatile
  2428                           
  2429                           ;i2c.c: 90: SSP1CON2 = 0x01;
  2430  02B4  3001               	movlw	1
  2431  02B5  0096               	movwf	22	;volatile
  2432                           
  2433                           ;i2c.c: 92: SSP1CON3 = 0x00;
  2434  02B6  0197               	clrf	23	;volatile
  2435                           
  2436                           ;i2c.c: 94: SSP1MSK = (127 << 1);
  2437  02B7  30FE               	movlw	254
  2438  02B8  0093               	movwf	19	;volatile
  2439                           
  2440                           ;i2c.c: 96: SSP1ADD = (96 << 1);
  2441  02B9  30C0               	movlw	192
  2442  02BA  0092               	movwf	18	;volatile
  2443                           
  2444                           ;i2c.c: 99: PIR1bits.SSP1IF = 0;
  2445  02BB  0020               	movlb	0	; select bank0
  2446  02BC  1191               	bcf	17,3	;volatile
  2447                           
  2448                           ;i2c.c: 101: PIE1bits.SSP1IE = 1;
  2449  02BD  0021               	movlb	1	; select bank1
  2450  02BE  1591               	bsf	17,3	;volatile
  2451  02BF  0008               	return
  2452  02C0                     __end_of_I2C_Initialize:	
  2453                           
  2454                           	psect	text7
  2455  01C3                     __ptext7:	
  2456 ;; *************** function _CheckTick24Timer *****************
  2457 ;; Defined at:
  2458 ;;		line 53 in file "NB_Time.c"
  2459 ;; Parameters:    Size  Location     Type
  2460 ;;  timeout         4    0[BANK0 ] unsigned long 
  2461 ;; Auto vars:     Size  Location     Type
  2462 ;;		None
  2463 ;; Return value:  Size  Location     Type
  2464 ;;                  2    0[BANK0 ] unsigned int 
  2465 ;; Registers used:
  2466 ;;		wreg, status,2
  2467 ;; Tracked objects:
  2468 ;;		On entry : 0/0
  2469 ;;		On exit  : 0/0
  2470 ;;		Unchanged: 0/0
  2471 ;; Data sizes:     COMMON   BANK0   BANK1   BANK2   BANK3   BANK4   BANK5   BANK6
  2472 ;;      Params:         0       4       0       0       0       0       0       0
  2473 ;;      Locals:         0       0       0       0       0       0       0       0
  2474 ;;      Temps:          0       8       0       0       0       0       0       0
  2475 ;;      Totals:         0      12       0       0       0       0       0       0
  2476 ;;Total ram usage:       12 bytes
  2477 ;; Hardware stack levels used:    1
  2478 ;; Hardware stack levels required when called:    3
  2479 ;; This function calls:
  2480 ;;		Nothing
  2481 ;; This function is called by:
  2482 ;;		_main
  2483 ;; This function uses a non-reentrant model
  2484 ;;
  2485                           
  2486                           
  2487                           ;psect for function _CheckTick24Timer
  2488  01C3                     _CheckTick24Timer:	
  2489                           
  2490                           ;NB_Time.c: 63: if(((timeout&0x7FFFFF)<(tick_us1&0x7FFFFF))&&((timeout&0x800000)==(tick_
      +                          us1&0x800000))){
  2491                           
  2492                           ;incstack = 0
  2493                           ; Regs used in _CheckTick24Timer: [wreg+status,2]
  2494  01C3  30FF               	movlw	255
  2495  01C4  0020               	movlb	0	; select bank0
  2496  01C5  0533               	andwf	_tick_us1,w
  2497  01C6  00A4               	movwf	??_CheckTick24Timer
  2498  01C7  30FF               	movlw	255
  2499  01C8  0534               	andwf	_tick_us1+1,w
  2500  01C9  00A5               	movwf	??_CheckTick24Timer+1
  2501  01CA  307F               	movlw	127
  2502  01CB  0535               	andwf	_tick_us1+2,w
  2503  01CC  00A6               	movwf	??_CheckTick24Timer+2
  2504  01CD  3000               	movlw	0
  2505  01CE  0536               	andwf	_tick_us1+3,w
  2506  01CF  00A7               	movwf	??_CheckTick24Timer+3
  2507  01D0  30FF               	movlw	255
  2508  01D1  0520               	andwf	CheckTick24Timer@timeout,w
  2509  01D2  00A8               	movwf	??_CheckTick24Timer+4
  2510  01D3  30FF               	movlw	255
  2511  01D4  0521               	andwf	CheckTick24Timer@timeout+1,w
  2512  01D5  00A9               	movwf	??_CheckTick24Timer+5
  2513  01D6  307F               	movlw	127
  2514  01D7  0522               	andwf	CheckTick24Timer@timeout+2,w
  2515  01D8  00AA               	movwf	??_CheckTick24Timer+6
  2516  01D9  3000               	movlw	0
  2517  01DA  0523               	andwf	CheckTick24Timer@timeout+3,w
  2518  01DB  00AB               	movwf	??_CheckTick24Timer+7
  2519  01DC  0827               	movf	??_CheckTick24Timer+3,w
  2520  01DD  022B               	subwf	??_CheckTick24Timer+7,w
  2521  01DE  1D03               	skipz
  2522  01DF  29EA               	goto	u195
  2523  01E0  0826               	movf	??_CheckTick24Timer+2,w
  2524  01E1  022A               	subwf	??_CheckTick24Timer+6,w
  2525  01E2  1D03               	skipz
  2526  01E3  29EA               	goto	u195
  2527  01E4  0825               	movf	??_CheckTick24Timer+1,w
  2528  01E5  0229               	subwf	??_CheckTick24Timer+5,w
  2529  01E6  1D03               	skipz
  2530  01E7  29EA               	goto	u195
  2531  01E8  0824               	movf	??_CheckTick24Timer,w
  2532  01E9  0228               	subwf	??_CheckTick24Timer+4,w
  2533  01EA                     u195:	
  2534  01EA  1803               	skipnc
  2535  01EB  2A19               	goto	l905
  2536  01EC  3000               	movlw	0
  2537  01ED  0533               	andwf	_tick_us1,w
  2538  01EE  00A4               	movwf	??_CheckTick24Timer
  2539  01EF  3000               	movlw	0
  2540  01F0  0534               	andwf	_tick_us1+1,w
  2541  01F1  00A5               	movwf	??_CheckTick24Timer+1
  2542  01F2  3080               	movlw	128
  2543  01F3  0535               	andwf	_tick_us1+2,w
  2544  01F4  00A6               	movwf	??_CheckTick24Timer+2
  2545  01F5  3000               	movlw	0
  2546  01F6  0536               	andwf	_tick_us1+3,w
  2547  01F7  00A7               	movwf	??_CheckTick24Timer+3
  2548  01F8  3000               	movlw	0
  2549  01F9  0520               	andwf	CheckTick24Timer@timeout,w
  2550  01FA  00A8               	movwf	??_CheckTick24Timer+4
  2551  01FB  3000               	movlw	0
  2552  01FC  0521               	andwf	CheckTick24Timer@timeout+1,w
  2553  01FD  00A9               	movwf	??_CheckTick24Timer+5
  2554  01FE  3080               	movlw	128
  2555  01FF  0522               	andwf	CheckTick24Timer@timeout+2,w
  2556  0200  00AA               	movwf	??_CheckTick24Timer+6
  2557  0201  3000               	movlw	0
  2558  0202  0523               	andwf	CheckTick24Timer@timeout+3,w
  2559  0203  00AB               	movwf	??_CheckTick24Timer+7
  2560  0204  0827               	movf	??_CheckTick24Timer+3,w
  2561  0205  062B               	xorwf	??_CheckTick24Timer+7,w
  2562  0206  1D03               	skipz
  2563  0207  2A12               	goto	u205
  2564  0208  0826               	movf	??_CheckTick24Timer+2,w
  2565  0209  062A               	xorwf	??_CheckTick24Timer+6,w
  2566  020A  1D03               	skipz
  2567  020B  2A12               	goto	u205
  2568  020C  0825               	movf	??_CheckTick24Timer+1,w
  2569  020D  0629               	xorwf	??_CheckTick24Timer+5,w
  2570  020E  1D03               	skipz
  2571  020F  2A12               	goto	u205
  2572  0210  0824               	movf	??_CheckTick24Timer,w
  2573  0211  0628               	xorwf	??_CheckTick24Timer+4,w
  2574  0212                     u205:	
  2575  0212  1D03               	skipz
  2576  0213  2A19               	goto	l905
  2577                           
  2578                           ;NB_Time.c: 64: return 1;
  2579  0214  3001               	movlw	1
  2580  0215  00A0               	movwf	?_CheckTick24Timer
  2581  0216  3000               	movlw	0
  2582  0217  00A1               	movwf	?_CheckTick24Timer+1
  2583  0218  0008               	return
  2584  0219                     l905:	
  2585                           
  2586                           ;NB_Time.c: 65: }
  2587                           ;NB_Time.c: 66: return 0;
  2588  0219  01A0               	clrf	?_CheckTick24Timer
  2589  021A  01A1               	clrf	?_CheckTick24Timer+1
  2590  021B  0008               	return
  2591  021C                     __end_of_CheckTick24Timer:	
  2592                           
  2593                           	psect	intentry
  2594  0004                     __pintentry:	
  2595 ;; *************** function _INTERRUPT_InterruptManager *****************
  2596 ;; Defined at:
  2597 ;;		line 123 in file "main.c"
  2598 ;; Parameters:    Size  Location     Type
  2599 ;;		None
  2600 ;; Auto vars:     Size  Location     Type
  2601 ;;		None
  2602 ;; Return value:  Size  Location     Type
  2603 ;;		None               void
  2604 ;; Registers used:
  2605 ;;		wreg, fsr0l, fsr0h, fsr1l, fsr1h, status,2, status,0, pclath, cstack
  2606 ;; Tracked objects:
  2607 ;;		On entry : 0/0
  2608 ;;		On exit  : 0/0
  2609 ;;		Unchanged: 0/0
  2610 ;; Data sizes:     COMMON   BANK0   BANK1   BANK2   BANK3   BANK4   BANK5   BANK6
  2611 ;;      Params:         0       0       0       0       0       0       0       0
  2612 ;;      Locals:         0       0       0       0       0       0       0       0
  2613 ;;      Temps:          5       0       0       0       0       0       0       0
  2614 ;;      Totals:         5       0       0       0       0       0       0       0
  2615 ;;Total ram usage:        5 bytes
  2616 ;; Hardware stack levels used:    1
  2617 ;; Hardware stack levels required when called:    2
  2618 ;; This function calls:
  2619 ;;		_I2C_ISR
  2620 ;; This function is called by:
  2621 ;;		Interrupt level 1
  2622 ;; This function uses a non-reentrant model
  2623 ;;
  2624                           
  2625  0004                     _INTERRUPT_InterruptManager:	
  2626                           
  2627                           ;incstack = 0
  2628                           ; Regs used in _INTERRUPT_InterruptManager: [wreg-fsr1h+status,2+status,0+pclath+cstack]
  2629  0004  147E               	bsf	126,0	;set compiler interrupt flag
  2630  0005  3180               	pagesel	$
  2631  0006  0020               	movlb	0	; select bank0
  2632  0007  087F               	movf	127,w
  2633  0008  00F9               	movwf	??_INTERRUPT_InterruptManager+4
  2634                           
  2635                           ;main.c: 126: if(INTCONbits.T0IF && INTCONbits.T0IE){
  2636  0009  190B               	btfsc	11,2	;volatile
  2637  000A  1E8B               	btfss	11,5	;volatile
  2638  000B  284B               	goto	i1l979
  2639                           
  2640                           ;main.c: 127: TMR0 -= 250;
  2641  000C  30FA               	movlw	250
  2642  000D  0295               	subwf	21,f	;volatile
  2643                           
  2644                           ;main.c: 128: INTCONbits.T0IF = 0;
  2645  000E  110B               	bcf	11,2	;volatile
  2646                           
  2647                           ;main.c: 129: tick_us1++;
  2648  000F  3001               	movlw	1
  2649  0010  07B3               	addwf	_tick_us1,f
  2650  0011  3000               	movlw	0
  2651  0012  3DB4               	addwfc	_tick_us1+1,f
  2652  0013  3000               	movlw	0
  2653  0014  3DB5               	addwfc	_tick_us1+2,f
  2654  0015  3000               	movlw	0
  2655  0016  3DB6               	addwfc	_tick_us1+3,f
  2656                           
  2657                           ;main.c: 130: if ((tick_us1&0x7FFFFF)>=4800000){
  2658  0017  30FF               	movlw	255
  2659  0018  0533               	andwf	_tick_us1,w
  2660  0019  00F5               	movwf	??_INTERRUPT_InterruptManager
  2661  001A  30FF               	movlw	255
  2662  001B  0534               	andwf	_tick_us1+1,w
  2663  001C  00F6               	movwf	??_INTERRUPT_InterruptManager+1
  2664  001D  307F               	movlw	127
  2665  001E  0535               	andwf	_tick_us1+2,w
  2666  001F  00F7               	movwf	??_INTERRUPT_InterruptManager+2
  2667  0020  3000               	movlw	0
  2668  0021  0536               	andwf	_tick_us1+3,w
  2669  0022  00F8               	movwf	??_INTERRUPT_InterruptManager+3
  2670  0023  3000               	movlw	0
  2671  0024  0278               	subwf	??_INTERRUPT_InterruptManager+3,w
  2672  0025  1D03               	skipz
  2673  0026  2831               	goto	u28_25
  2674  0027  3049               	movlw	73
  2675  0028  0277               	subwf	??_INTERRUPT_InterruptManager+2,w
  2676  0029  1D03               	skipz
  2677  002A  2831               	goto	u28_25
  2678  002B  303E               	movlw	62
  2679  002C  0276               	subwf	??_INTERRUPT_InterruptManager+1,w
  2680  002D  1D03               	skipz
  2681  002E  2831               	goto	u28_25
  2682  002F  3000               	movlw	0
  2683  0030  0275               	subwf	??_INTERRUPT_InterruptManager,w
  2684  0031                     u28_25:	
  2685  0031  1C03               	skipc
  2686  0032  284B               	goto	i1l979
  2687                           
  2688                           ;main.c: 131: tick_us1 -= 4800000;
  2689  0033  3000               	movlw	0
  2690  0034  00F5               	movwf	??_INTERRUPT_InterruptManager
  2691  0035  303E               	movlw	62
  2692  0036  00F6               	movwf	??_INTERRUPT_InterruptManager+1
  2693  0037  3049               	movlw	73
  2694  0038  00F7               	movwf	??_INTERRUPT_InterruptManager+2
  2695  0039  3000               	movlw	0
  2696  003A  00F8               	movwf	??_INTERRUPT_InterruptManager+3
  2697  003B  0875               	movf	??_INTERRUPT_InterruptManager,w
  2698  003C  02B3               	subwf	_tick_us1,f
  2699  003D  0876               	movf	??_INTERRUPT_InterruptManager+1,w
  2700  003E  3BB4               	subwfb	_tick_us1+1,f
  2701  003F  0877               	movf	??_INTERRUPT_InterruptManager+2,w
  2702  0040  3BB5               	subwfb	_tick_us1+2,f
  2703  0041  0878               	movf	??_INTERRUPT_InterruptManager+3,w
  2704  0042  3BB6               	subwfb	_tick_us1+3,f
  2705                           
  2706                           ;main.c: 132: tick_us1 ^= 0x00800000;
  2707  0043  3000               	movlw	0
  2708  0044  06B3               	xorwf	_tick_us1,f
  2709  0045  3000               	movlw	0
  2710  0046  06B4               	xorwf	_tick_us1+1,f
  2711  0047  3080               	movlw	128
  2712  0048  06B5               	xorwf	_tick_us1+2,f
  2713  0049  3000               	movlw	0
  2714  004A  06B6               	xorwf	_tick_us1+3,f
  2715  004B                     i1l979:	
  2716                           
  2717                           ;main.c: 133: }
  2718                           ;main.c: 135: }
  2719                           ;main.c: 136: if(PIE1bits.SSP1IE == 1 && PIR1bits.SSP1IF == 1)
  2720  004B  0021               	movlb	1	; select bank1
  2721  004C  1D91               	btfss	17,3	;volatile
  2722  004D  2855               	goto	i1l42
  2723  004E  0020               	movlb	0	; select bank0
  2724  004F  1D91               	btfss	17,3	;volatile
  2725  0050  2855               	goto	i1l42
  2726                           
  2727                           ;main.c: 137: {
  2728                           ;main.c: 138: LATCbits.LATC7 = 0;
  2729  0051  0022               	movlb	2	; select bank2
  2730  0052  138E               	bcf	14,7	;volatile
  2731                           
  2732                           ;main.c: 139: I2C_ISR();
  2733  0053  3182  228E         	fcall	_I2C_ISR
  2734  0055                     i1l42:	
  2735                           ;main.c: 141: else
  2736                           ;main.c: 142: {
  2737                           
  2738                           ;main.c: 140: }
  2739                           
  2740  0055  0879               	movf	??_INTERRUPT_InterruptManager+4,w
  2741  0056  0020               	movlb	0	; select bank0
  2742  0057  00FF               	movwf	127
  2743  0058  107E               	bcf	126,0	;clear compiler interrupt flag
  2744  0059  0009               	retfie
  2745  005A                     __end_of_INTERRUPT_InterruptManager:	
  2746                           
  2747                           	psect	text9
  2748  028E                     __ptext9:	
  2749 ;; *************** function _I2C_ISR *****************
  2750 ;; Defined at:
  2751 ;;		line 105 in file "mcc_generated_files/i2c.c"
  2752 ;; Parameters:    Size  Location     Type
  2753 ;;		None
  2754 ;; Auto vars:     Size  Location     Type
  2755 ;;  i2c_data        1    4[COMMON] unsigned char 
  2756 ;; Return value:  Size  Location     Type
  2757 ;;		None               void
  2758 ;; Registers used:
  2759 ;;		wreg, fsr0l, fsr0h, fsr1l, fsr1h, status,2, status,0, pclath, cstack
  2760 ;; Tracked objects:
  2761 ;;		On entry : 0/0
  2762 ;;		On exit  : 0/0
  2763 ;;		Unchanged: 0/0
  2764 ;; Data sizes:     COMMON   BANK0   BANK1   BANK2   BANK3   BANK4   BANK5   BANK6
  2765 ;;      Params:         0       0       0       0       0       0       0       0
  2766 ;;      Locals:         1       0       0       0       0       0       0       0
  2767 ;;      Temps:          1       0       0       0       0       0       0       0
  2768 ;;      Totals:         2       0       0       0       0       0       0       0
  2769 ;;Total ram usage:        2 bytes
  2770 ;; Hardware stack levels used:    1
  2771 ;; Hardware stack levels required when called:    1
  2772 ;; This function calls:
  2773 ;;		_I2C_StatusCallback
  2774 ;; This function is called by:
  2775 ;;		_INTERRUPT_InterruptManager
  2776 ;; This function uses a non-reentrant model
  2777 ;;
  2778                           
  2779                           
  2780                           ;psect for function _I2C_ISR
  2781  028E                     _I2C_ISR:	
  2782                           
  2783                           ;i2c.c: 107: uint8_t i2c_data = 0x55;
  2784                           
  2785                           ;incstack = 0
  2786                           ; Regs used in _I2C_ISR: [wreg-fsr1h+status,2+status,0+pclath+cstack]
  2787  028E  3055               	movlw	85
  2788  028F  00F3               	movwf	??_I2C_ISR
  2789  0290  0873               	movf	??_I2C_ISR,w
  2790  0291  00F4               	movwf	I2C_ISR@i2c_data
  2791                           
  2792                           ;i2c.c: 113: PIR1bits.SSP1IF = 0;
  2793  0292  0020               	movlb	0	; select bank0
  2794  0293  1191               	bcf	17,3	;volatile
  2795                           
  2796                           ;i2c.c: 114: i2c_data = SSP1BUF;
  2797  0294  0024               	movlb	4	; select bank4
  2798  0295  0811               	movf	17,w	;volatile
  2799  0296  00F3               	movwf	??_I2C_ISR
  2800  0297  0873               	movf	??_I2C_ISR,w
  2801  0298  00F4               	movwf	I2C_ISR@i2c_data
  2802                           
  2803                           ;i2c.c: 115: if(1 == SSP1STATbits.R_nW)
  2804  0299  1D14               	btfss	20,2	;volatile
  2805  029A  2AA2               	goto	i1l76
  2806                           
  2807                           ;i2c.c: 116: {
  2808                           ;i2c.c: 117: if((1 == SSP1STATbits.D_nA) && (1 == SSP1CON2bits.ACKSTAT))
  2809  029B  1A94               	btfsc	20,5	;volatile
  2810  029C  1F16               	btfss	22,6	;volatile
  2811  029D  2AA0               	goto	i1l921
  2812                           
  2813                           ;i2c.c: 118: {
  2814                           ;i2c.c: 120: I2C_StatusCallback(I2C_SLAVE_READ_COMPLETED);
  2815  029E  3003               	movlw	3
  2816  029F  2AAB               	goto	L1
  2817  02A0                     i1l921:	
  2818                           ;i2c.c: 121: }
  2819                           
  2820                           
  2821                           ;i2c.c: 122: else
  2822                           ;i2c.c: 123: {
  2823                           ;i2c.c: 125: I2C_StatusCallback(I2C_SLAVE_READ_REQUEST);
  2824  02A0  3001               	movlw	1
  2825  02A1  2AAB               	goto	L1
  2826  02A2                     i1l76:	
  2827                           ;i2c.c: 126: }
  2828                           ;i2c.c: 127: }
  2829                           
  2830                           
  2831                           ;i2c.c: 128: else if(0 == SSP1STATbits.D_nA)
  2832  02A2  1A94               	btfsc	20,5	;volatile
  2833  02A3  2AA6               	goto	i1l925
  2834                           
  2835                           ;i2c.c: 129: {
  2836                           ;i2c.c: 133: I2C_StatusCallback(I2C_SLAVE_WRITE_REQUEST);
  2837  02A4  3000               	movlw	0
  2838  02A5  2AAB               	goto	L1
  2839  02A6                     i1l925:	
  2840                           ;i2c.c: 134: }
  2841                           
  2842                           
  2843                           ;i2c.c: 135: else
  2844                           ;i2c.c: 136: {
  2845                           ;i2c.c: 137: I2C_slaveWriteData = i2c_data;
  2846  02A6  0874               	movf	I2C_ISR@i2c_data,w
  2847  02A7  00F3               	movwf	??_I2C_ISR
  2848  02A8  0873               	movf	??_I2C_ISR,w
  2849  02A9  00FC               	movwf	_I2C_slaveWriteData	;volatile
  2850                           
  2851                           ;i2c.c: 140: I2C_StatusCallback(I2C_SLAVE_WRITE_COMPLETED);
  2852  02AA  3002               	movlw	2
  2853  02AB                     L1:	
  2854  02AB  3182  221C         	fcall	_I2C_StatusCallback
  2855                           
  2856                           ;i2c.c: 141: }
  2857                           ;i2c.c: 143: SSPCON1bits.CKP = 1;
  2858  02AD  0024               	movlb	4	; select bank4
  2859  02AE  1615               	bsf	21,4	;volatile
  2860  02AF  0008               	return
  2861  02B0                     __end_of_I2C_ISR:	
  2862                           
  2863                           	psect	text10
  2864  021C                     __ptext10:	
  2865 ;; *************** function _I2C_StatusCallback *****************
  2866 ;; Defined at:
  2867 ;;		line 169 in file "mcc_generated_files/i2c.c"
  2868 ;; Parameters:    Size  Location     Type
  2869 ;;  i2c_bus_stat    1    wreg     enum E4724
  2870 ;; Auto vars:     Size  Location     Type
  2871 ;;  i2c_bus_stat    1    2[COMMON] enum E4724
  2872 ;; Return value:  Size  Location     Type
  2873 ;;		None               void
  2874 ;; Registers used:
  2875 ;;		wreg, fsr0l, fsr0h, fsr1l, fsr1h, status,2, status,0
  2876 ;; Tracked objects:
  2877 ;;		On entry : 0/0
  2878 ;;		On exit  : 0/0
  2879 ;;		Unchanged: 0/0
  2880 ;; Data sizes:     COMMON   BANK0   BANK1   BANK2   BANK3   BANK4   BANK5   BANK6
  2881 ;;      Params:         0       0       0       0       0       0       0       0
  2882 ;;      Locals:         1       0       0       0       0       0       0       0
  2883 ;;      Temps:          2       0       0       0       0       0       0       0
  2884 ;;      Totals:         3       0       0       0       0       0       0       0
  2885 ;;Total ram usage:        3 bytes
  2886 ;; Hardware stack levels used:    1
  2887 ;; This function calls:
  2888 ;;		Nothing
  2889 ;; This function is called by:
  2890 ;;		_I2C_ISR
  2891 ;; This function uses a non-reentrant model
  2892 ;;
  2893                           
  2894                           
  2895                           ;psect for function _I2C_StatusCallback
  2896  021C                     _I2C_StatusCallback:	
  2897                           
  2898                           ;incstack = 0
  2899                           ; Regs used in _I2C_StatusCallback: [wreg-fsr1h+status,2+status,0]
  2900                           ;I2C_StatusCallback@i2c_bus_state stored from wreg
  2901  021C  00F2               	movwf	I2C_StatusCallback@i2c_bus_state
  2902                           
  2903                           ;i2c.c: 172: static uint8_t EEPROM_Buffer[] =
  2904                           ;i2c.c: 173: {
  2905                           ;i2c.c: 174: 0x00,0x01,0x02,0x03,0x04,0x05,0x06,0x07,0x08,0x09,0x0a,0x0b,0x0c,0x0d,0x0e,
      +                          0x0f,
  2906                           ;i2c.c: 175: 0x10,0x11,0x12,0x13,0x14,0x15,0x16,0x17,0x18,0x19,0x1a,0x1b,0x1c,0x1d,0x1e,
      +                          0x1f,
  2907                           ;i2c.c: 176: 0x20,0x21,0x22,0x23,0x24,0x25,0x26,0x27,0x28,0x29,0x2a,0x2b,0x2c,0x2d,0x2e,
      +                          0x2f,
  2908                           ;i2c.c: 177: 0x30,0x31,0x32,0x33,0x34,0x35,0x36,0x37,0x38,0x39,0x3a,0x3b,0x3c,0x3d,0x3e,
      +                          0x3f,
  2909                           ;i2c.c: 178: 0x40,0x41,0x42,0x43,0x44,0x45,0x46,0x47,0x48,0x49,0x4a,0x4b,0x4c,0x4d,0x4e,
      +                          0x4f,
  2910  021D  2A59               	goto	i1l853
  2911  021E                     i1l92:	
  2912                           ;i2c.c: 189: {
  2913                           ;i2c.c: 190: case I2C_SLAVE_WRITE_REQUEST:
  2914                           
  2915                           
  2916                           ;i2c.c: 192: slaveWriteType = SLAVE_DATA_ADDRESS;
  2917  021E  01FB               	clrf	I2C_StatusCallback@slaveWriteType
  2918  021F  0AFB               	incf	I2C_StatusCallback@slaveWriteType,f
  2919                           
  2920                           ;i2c.c: 193: break;
  2921  0220  0008               	return
  2922  0221                     i1l829:	
  2923                           ;i2c.c: 199: {
  2924                           ;i2c.c: 200: case SLAVE_DATA_ADDRESS:
  2925                           
  2926                           ;i2c.c: 198: switch(slaveWriteType)
  2927                           
  2928                           ;i2c.c: 196: case I2C_SLAVE_WRITE_COMPLETED:
  2929                           
  2930                           
  2931                           ;i2c.c: 201: eepromAddress = I2C_slaveWriteData;
  2932  0221  087C               	movf	_I2C_slaveWriteData,w	;volatile
  2933  0222  00F0               	movwf	??_I2C_StatusCallback
  2934  0223  0870               	movf	??_I2C_StatusCallback,w
  2935  0224  00FA               	movwf	I2C_StatusCallback@eepromAddress
  2936                           
  2937                           ;i2c.c: 202: break;
  2938  0225  2A44               	goto	i1l843
  2939  0226                     i1l831:	
  2940                           ;i2c.c: 206: default:
  2941                           
  2942                           ;i2c.c: 205: case SLAVE_NORMAL_DATA:
  2943                           
  2944                           
  2945                           ;i2c.c: 208: EEPROM_Buffer[eepromAddress++] = I2C_slaveWriteData;
  2946  0226  087A               	movf	I2C_StatusCallback@eepromAddress,w
  2947  0227  3E70               	addlw	112
  2948  0228  00F0               	movwf	??_I2C_StatusCallback
  2949  0229  01F1               	clrf	??_I2C_StatusCallback+1
  2950  022A  3021               	movlw	33
  2951  022B  3DF1               	addwfc	??_I2C_StatusCallback+1,f
  2952  022C  0870               	movf	??_I2C_StatusCallback,w
  2953  022D  0086               	movwf	6
  2954  022E  0871               	movf	??_I2C_StatusCallback+1,w
  2955  022F  0087               	movwf	7
  2956  0230  087C               	movf	_I2C_slaveWriteData,w	;volatile
  2957  0231  0081               	movwf	1
  2958  0232  3001               	movlw	1
  2959  0233  00F0               	movwf	??_I2C_StatusCallback
  2960  0234  0870               	movf	??_I2C_StatusCallback,w
  2961  0235  07FA               	addwf	I2C_StatusCallback@eepromAddress,f
  2962                           
  2963                           ;i2c.c: 209: if(sizeof(EEPROM_Buffer) <= eepromAddress)
  2964  0236  3080               	movlw	128
  2965  0237  027A               	subwf	I2C_StatusCallback@eepromAddress,w
  2966  0238  1C03               	skipc
  2967  0239  2A44               	goto	i1l843
  2968                           
  2969                           ;i2c.c: 210: {
  2970                           ;i2c.c: 211: eepromAddress = 0;
  2971  023A  01FA               	clrf	I2C_StatusCallback@eepromAddress
  2972                           
  2973                           ;i2c.c: 215: }
  2974                           
  2975                           ;i2c.c: 212: }
  2976                           ;i2c.c: 213: break;
  2977  023B  2A44               	goto	i1l843
  2978  023C                     i1l841:	
  2979  023C  087B               	movf	I2C_StatusCallback@slaveWriteType,w
  2980                           
  2981                           ; Switch size 1, requested type "space"
  2982                           ; Number of cases is 2, Range of values is 0 to 1
  2983                           ; switch strategies available:
  2984                           ; Name         Instructions Cycles
  2985                           ; simple_byte            7     4 (average)
  2986                           ; direct_byte           10     6 (fixed)
  2987                           ; jumptable            260     6 (fixed)
  2988                           ;	Chosen strategy is simple_byte
  2989  023D  3A00               	xorlw	0	; case 0
  2990  023E  1903               	skipnz
  2991  023F  2A26               	goto	i1l831
  2992  0240  3A01               	xorlw	1	; case 1
  2993  0241  1903               	skipnz
  2994  0242  2A21               	goto	i1l829
  2995  0243  2A26               	goto	i1l831
  2996  0244                     i1l843:	
  2997                           
  2998                           ;i2c.c: 217: slaveWriteType = SLAVE_NORMAL_DATA;
  2999  0244  01FB               	clrf	I2C_StatusCallback@slaveWriteType
  3000                           
  3001                           ;i2c.c: 218: break;
  3002  0245  0008               	return
  3003  0246                     i1l845:	
  3004                           ;i2c.c: 220: case I2C_SLAVE_READ_REQUEST:
  3005                           
  3006                           
  3007                           ;i2c.c: 221: SSP1BUF = EEPROM_Buffer[eepromAddress++];
  3008  0246  087A               	movf	I2C_StatusCallback@eepromAddress,w
  3009  0247  3E70               	addlw	112
  3010  0248  0086               	movwf	6
  3011  0249  0187               	clrf	7
  3012  024A  3021               	movlw	33
  3013  024B  3D87               	addwfc	7,f
  3014  024C  0801               	movf	1,w
  3015  024D  0024               	movlb	4	; select bank4
  3016  024E  0091               	movwf	17	;volatile
  3017  024F  3001               	movlw	1
  3018  0250  00F0               	movwf	??_I2C_StatusCallback
  3019  0251  0870               	movf	??_I2C_StatusCallback,w
  3020  0252  07FA               	addwf	I2C_StatusCallback@eepromAddress,f
  3021                           
  3022                           ;i2c.c: 222: if(sizeof(EEPROM_Buffer) <= eepromAddress)
  3023  0253  3080               	movlw	128
  3024  0254  027A               	subwf	I2C_StatusCallback@eepromAddress,w
  3025  0255  1C03               	skipc
  3026  0256  0008               	return
  3027                           
  3028                           ;i2c.c: 223: {
  3029                           ;i2c.c: 224: eepromAddress = 0;
  3030  0257  01FA               	clrf	I2C_StatusCallback@eepromAddress
  3031                           
  3032                           ;i2c.c: 231: }
  3033                           
  3034                           ;i2c.c: 229: default:;
  3035                           
  3036                           ;i2c.c: 228: case I2C_SLAVE_READ_COMPLETED:
  3037                           
  3038                           ;i2c.c: 225: }
  3039                           ;i2c.c: 226: break;
  3040  0258  0008               	return
  3041  0259                     i1l853:	
  3042  0259  0872               	movf	I2C_StatusCallback@i2c_bus_state,w
  3043                           
  3044                           ; Switch size 1, requested type "space"
  3045                           ; Number of cases is 4, Range of values is 0 to 3
  3046                           ; switch strategies available:
  3047                           ; Name         Instructions Cycles
  3048                           ; simple_byte           13     7 (average)
  3049                           ; direct_byte           14     6 (fixed)
  3050                           ; jumptable            260     6 (fixed)
  3051                           ;	Chosen strategy is simple_byte
  3052  025A  3A00               	xorlw	0	; case 0
  3053  025B  1903               	skipnz
  3054  025C  2A1E               	goto	i1l92
  3055  025D  3A01               	xorlw	1	; case 1
  3056  025E  1903               	skipnz
  3057  025F  2A46               	goto	i1l845
  3058  0260  3A03               	xorlw	3	; case 2
  3059  0261  1903               	skipnz
  3060  0262  2A3C               	goto	i1l841
  3061  0263  3A01               	xorlw	1	; case 3
  3062  0264  1903               	skipnz
  3063  0265  2A67               	goto	i1l105
  3064  0266  2A67               	goto	i1l105
  3065  0267                     i1l105:	
  3066  0267  0008               	return
  3067  0268                     __end_of_I2C_StatusCallback:	
  3068  007E                     btemp	set	126	;btemp
  3069  007E                     pic14e$flags	set	126
  3070  007E                     wtemp	set	126
  3071  007E                     wtemp0	set	126
  3072  0080                     wtemp1	set	128
  3073  0082                     wtemp2	set	130
  3074  0084                     wtemp3	set	132
  3075  0086                     wtemp4	set	134
  3076  0088                     wtemp5	set	136
  3077  007F                     wtemp6	set	127
  3078  007E                     ttemp	set	126
  3079  007E                     ttemp0	set	126
  3080  0081                     ttemp1	set	129
  3081  0084                     ttemp2	set	132
  3082  0087                     ttemp3	set	135
  3083  007F                     ttemp4	set	127
  3084  007E                     ltemp	set	126
  3085  007E                     ltemp0	set	126
  3086  0082                     ltemp1	set	130
  3087  0086                     ltemp2	set	134
  3088  0080                     ltemp3	set	128


Data Sizes:
    Strings     0
    Constant    0
    Data        129
    BSS         8
    Persistent  0
    Stack       0

Auto Spaces:
    Space          Size  Autos    Used
    COMMON           14     10      13
    BANK0            80     19      25
    BANK1            80      0       0
    BANK2            80      0       0
    BANK3            80      0       0
    BANK4            48      0       0
    BANK5             0      0       0
    BANK6             0      0       0

Pointer List with Targets:

    None.

Critical Paths under _main in COMMON

    None.

Critical Paths under _INTERRUPT_InterruptManager in COMMON

    _INTERRUPT_InterruptManager->_I2C_ISR
    _I2C_ISR->_I2C_StatusCallback

Critical Paths under _main in BANK0

    _main->_CheckTick24Timer
    _main->_Tick24BitTimer

Critical Paths under _INTERRUPT_InterruptManager in BANK0

    None.

Critical Paths under _main in BANK1

    None.

Critical Paths under _INTERRUPT_InterruptManager in BANK1

    None.

Critical Paths under _main in BANK2

    None.

Critical Paths under _INTERRUPT_InterruptManager in BANK2

    None.

Critical Paths under _main in BANK3

    None.

Critical Paths under _INTERRUPT_InterruptManager in BANK3

    None.

Critical Paths under _main in BANK4

    None.

Critical Paths under _INTERRUPT_InterruptManager in BANK4

    None.

Critical Paths under _main in BANK5

    None.

Critical Paths under _INTERRUPT_InterruptManager in BANK5

    None.

Critical Paths under _main in BANK6

    None.

Critical Paths under _INTERRUPT_InterruptManager in BANK6

    None.

Call Graph Tables:

 ---------------------------------------------------------------------------------
 (Depth) Function   	        Calls       Base Space   Used Autos Params    Refs
 ---------------------------------------------------------------------------------
 (0) _main                                                 7     7      0     297
                                             12 BANK0      7     7      0
                   _CheckTick24Timer
                  _SYSTEM_Initialize
                      _SetClockSpeed
                     _Tick24BitTimer
 ---------------------------------------------------------------------------------
 (1) _Tick24BitTimer                                      12     8      4     176
                                              0 BANK0     12     8      4
 ---------------------------------------------------------------------------------
 (1) _SetClockSpeed                                        0     0      0       0
 ---------------------------------------------------------------------------------
 (1) _SYSTEM_Initialize                                    0     0      0       0
                     _I2C_Initialize
              _OSCILLATOR_Initialize
             _PIN_MANAGER_Initialize
 ---------------------------------------------------------------------------------
 (2) _PIN_MANAGER_Initialize                               0     0      0       0
 ---------------------------------------------------------------------------------
 (2) _OSCILLATOR_Initialize                                0     0      0       0
 ---------------------------------------------------------------------------------
 (2) _I2C_Initialize                                       0     0      0       0
 ---------------------------------------------------------------------------------
 (1) _CheckTick24Timer                                    12     8      4      97
                                              0 BANK0     12     8      4
 ---------------------------------------------------------------------------------
 Estimated maximum stack depth 2
 ---------------------------------------------------------------------------------
 (Depth) Function   	        Calls       Base Space   Used Autos Params    Refs
 ---------------------------------------------------------------------------------
 (3) _INTERRUPT_InterruptManager                           5     5      0      46
                                              5 COMMON     5     5      0
                            _I2C_ISR
 ---------------------------------------------------------------------------------
 (4) _I2C_ISR                                              2     2      0      46
                                              3 COMMON     2     2      0
                 _I2C_StatusCallback
 ---------------------------------------------------------------------------------
 (5) _I2C_StatusCallback                                   3     3      0      22
                                              0 COMMON     3     3      0
 ---------------------------------------------------------------------------------
 Estimated maximum stack depth 5
 ---------------------------------------------------------------------------------

 Call Graph Graphs:

 _main (ROOT)
   _CheckTick24Timer
   _SYSTEM_Initialize
     _I2C_Initialize
     _OSCILLATOR_Initialize
     _PIN_MANAGER_Initialize
   _SetClockSpeed
   _Tick24BitTimer

 _INTERRUPT_InterruptManager (ROOT)
   _I2C_ISR
     _I2C_StatusCallback

 Address spaces:
Name               Size   Autos  Total    Cost      Usage
BIGRAM             1F0      0       0       0        0.0%
EEDATA             100      0       0       0        0.0%
NULL                 0      0       0       0        0.0%
CODE                 0      0       0       0        0.0%
BITCOMMON            E      0       0       1        0.0%
BITSFR0              0      0       0       1        0.0%
SFR0                 0      0       0       1        0.0%
COMMON               E      A       D       2       92.9%
BITSFR1              0      0       0       2        0.0%
SFR1                 0      0       0       2        0.0%
BITSFR2              0      0       0       3        0.0%
SFR2                 0      0       0       3        0.0%
STACK                0      0       0       3        0.0%
BITSFR3              0      0       0       4        0.0%
SFR3                 0      0       0       4        0.0%
ABS                  0      0      26       4        0.0%
BITBANK0            50      0       0       5        0.0%
BITSFR4              0      0       0       5        0.0%
SFR4                 0      0       0       5        0.0%
BANK0               50     13      19       6       31.3%
BITSFR5              0      0       0       6        0.0%
SFR5                 0      0       0       6        0.0%
BITBANK1            50      0       0       7        0.0%
BITSFR6              0      0       0       7        0.0%
SFR6                 0      0       0       7        0.0%
BANK1               50      0       0       8        0.0%
BITSFR7              0      0       0       8        0.0%
SFR7                 0      0       0       8        0.0%
BITBANK2            50      0       0       9        0.0%
BITSFR8              0      0       0       9        0.0%
SFR8                 0      0       0       9        0.0%
BANK2               50      0       0      10        0.0%
BITSFR9              0      0       0      10        0.0%
SFR9                 0      0       0      10        0.0%
BITBANK3            50      0       0      11        0.0%
BITSFR10             0      0       0      11        0.0%
SFR10                0      0       0      11        0.0%
BANK3               50      0       0      12        0.0%
BITSFR11             0      0       0      12        0.0%
SFR11                0      0       0      12        0.0%
BITBANK4            50      0       0      13        0.0%
BITSFR12             0      0       0      13        0.0%
SFR12                0      0       0      13        0.0%
BANK4               30      0       0      14        0.0%
BITSFR13             0      0       0      14        0.0%
SFR13                0      0       0      14        0.0%
BITBANK5            50      0       0      15        0.0%
BITSFR14             0      0       0      15        0.0%
SFR14                0      0       0      15        0.0%
BITSFR15             0      0       0      16        0.0%
SFR15                0      0       0      16        0.0%
BANK5                0      0       0      16        0.0%
BITBANK6            10      0       0      17        0.0%
BITSFR16             0      0       0      17        0.0%
SFR16                0      0       0      17        0.0%
BITSFR17             0      0       0      18        0.0%
SFR17                0      0       0      18        0.0%
BANK6                0      0       0      18        0.0%
BITSFR18             0      0       0      19        0.0%
SFR18                0      0       0      19        0.0%
DATA                 0      0      26      19        0.0%
BITSFR19             0      0       0      20        0.0%
SFR19                0      0       0      20        0.0%
BITSFR20             0      0       0      21        0.0%
SFR20                0      0       0      21        0.0%
BITSFR21             0      0       0      22        0.0%
SFR21                0      0       0      22        0.0%
BITSFR22             0      0       0      23        0.0%
SFR22                0      0       0      23        0.0%
BITSFR23             0      0       0      24        0.0%
SFR23                0      0       0      24        0.0%
BITSFR24             0      0       0      25        0.0%
SFR24                0      0       0      25        0.0%
BITSFR25             0      0       0      26        0.0%
SFR25                0      0       0      26        0.0%
BITSFR26             0      0       0      27        0.0%
SFR26                0      0       0      27        0.0%
BITSFR27             0      0       0      28        0.0%
SFR27                0      0       0      28        0.0%
BITSFR28             0      0       0      29        0.0%
SFR28                0      0       0      29        0.0%
BITSFR29             0      0       0      30        0.0%
SFR29                0      0       0      30        0.0%
BITSFR30             0      0       0      31        0.0%
SFR30                0      0       0      31        0.0%
BITSFR31             0      0       0      32        0.0%
SFR31                0      0       0      32        0.0%


Microchip Technology PIC Macro Assembler V1.32 build 58300 
Symbol Table                                                                                   Thu May 21 16:01:26 2015

                        __CFG_CP$OFF 0000                          __CFG_LVP$ON 0000  
                                l171 01BA                                  l905 0219  
                                l959 012E                                  u205 0212  
                                u317 0124                                  u185 01A0  
                       __CFG_CPD$OFF 0000                                  u195 01EA  
                    __end_of_I2C_ISR 02B0                         __CFG_BORV$LO 0000  
                               _LATA 010C                                 _LATB 010D  
                               _LATC 010E                                 i1l42 0055  
                               i1l92 021E                                 i1l76 02A2  
                               _TMR0 0015                                 _WPUA 020C  
                               _WPUB 020D                                 _WPUC 020E  
                               _WPUE 0210                         __CFG_WRT$OFF 0000  
                      __CFG_FCMEN$ON 0000                                 _main 00F9  
                               fsr0h 0005                                 fsr1h 0007  
                               fsr0l 0004                                 indf1 0001  
                               fsr1l 0006                                 btemp 007E  
                               ltemp 007E                                 start 005A  
                               ttemp 007E                                 wtemp 007E  
                      __CFG_IESO$OFF 0000                        __CFG_MCLRE$ON 0000  
     __size_of_OSCILLATOR_Initialize 0006        __end_of_OSCILLATOR_Initialize 02E2  
                              ?_main 0070                        __CFG_WDTE$OFF 0000  
                              i1l105 0267                                i1l831 0226  
                              i1l841 023C                                i1l921 02A0  
                              i1l843 0244                                i1l845 0246  
                              i1l829 0221                                i1l853 0259  
                              i1l925 02A6                                i1l979 004B  
                              u28_25 0031                                _TRISA 008C  
                              _TRISB 008D                                _TRISC 008E  
                              _TRISE 0090                       __CFG_BOREN$OFF 0000  
                              ltemp0 007E                                ltemp1 0082  
                              ltemp2 0086                                ltemp3 0080  
                              ttemp0 007E                                ttemp1 0081  
                              ttemp2 0084                                ttemp3 0087  
                              ttemp4 007F                                wtemp0 007E  
                              wtemp1 0080                                wtemp2 0082  
                              wtemp3 0084                                wtemp4 0086  
                              wtemp5 0088                                wtemp6 007F  
                    __initialization 005C                         __end_of_main 0169  
                          ??_I2C_ISR 0073                       __CFG_LPBOR$OFF 0000  
        ?_INTERRUPT_InterruptManager 0070                               ??_main 002C  
                     __CFG_PLLEN$OFF 0000                               _APFCON 011D  
                             _ANSELA 018C                               _ANSELB 018D  
                             _OSCCON 0099              __size_of_Tick24BitTimer 005A  
                     __CFG_PWRTE$OFF 0000                       __CFG_STVREN$ON 0000  
                 _I2C_StatusCallback 021C              __size_of_I2C_Initialize 0010  
                       __pdataBIGRAM 2170                         __pdataCOMMON 007C  
                ?_I2C_StatusCallback 0070               __size_of_SetClockSpeed 0007  
                  _SYSTEM_Initialize 02CC              __end_of__initialization 0075  
                 ?_SYSTEM_Initialize 0070                 ??_I2C_StatusCallback 0070  
                     __pcstackCOMMON 0070            __size_of_CheckTick24Timer 0059  
                ??_SYSTEM_Initialize 0020                       _OPTION_REGbits 0095  
          __end_of_SYSTEM_Initialize 02D5                           __pbssBANK0 0033  
                    __CFG_VCAPEN$OFF 0000                           __pmaintext 00F9  
                      _SetClockSpeed 02D5                           __pintentry 0004  
                            _I2C_ISR 028E     I2C_StatusCallback@slaveWriteType 007B  
                            _OSCSTAT 009A                              _OSCTUNE 0098  
                            _SSP1ADD 0212                              _SSP1BUF 0211  
                            _SSP1MSK 0213                              _SSPCON1 0215  
                     _Tick24BitTimer 0169                       ?_SetClockSpeed 0070  
                     _I2C_Initialize 02B0                              __ptext1 0169  
                            __ptext2 02D5                              __ptext3 02CC  
                            __ptext4 0268                              __ptext5 02DC  
                            __ptext6 02B0                              __ptext7 01C3  
                            __ptext9 028E                _OSCILLATOR_Initialize 02DC  
           ??_PIN_MANAGER_Initialize 0020           __size_of_SYSTEM_Initialize 0009  
             __end_of_Tick24BitTimer 01C3                 end_of_initialization 0075  
                            init_ram 02C0                              initloop 02C1  
                   _CheckTick24Timer 01C3               __end_of_I2C_Initialize 02C0  
                   __CFG_FOSC$INTOSC 0000                            _TRISCbits 008E  
    I2C_StatusCallback@EEPROM_Buffer 2170                      ?_Tick24BitTimer 0020  
                    ??_SetClockSpeed 0020                           main@sysLED 002F  
                    ?_I2C_Initialize 0070                        __pidataBIGRAM 0079  
                      __pidataCOMMON 02E2               ?_OSCILLATOR_Initialize 0070  
                start_initialization 005C      __size_of_PIN_MANAGER_Initialize 0026  
        __size_of_I2C_StatusCallback 004C                 Tick24BitTimer@timer4 0020  
                           ?_I2C_ISR 0070                          __pbssCOMMON 007A  
                          ___latbits 0001                        __pcstackBANK0 0020  
             _PIN_MANAGER_Initialize 0268         ??_INTERRUPT_InterruptManager 0075  
           __end_of_CheckTick24Timer 021C                             _LATCbits 010E  
                           _PIE1bits 0091  __size_of_INTERRUPT_InterruptManager 0056  
                           _PIR1bits 0011                             _SSP1CON2 0216  
                           _SSP1CON3 0217                             _SSP1STAT 0214  
    I2C_StatusCallback@eepromAddress 007A                     __size_of_I2C_ISR 0022  
                   ??_Tick24BitTimer 0024              CheckTick24Timer@timeout 0020  
                   ??_I2C_Initialize 0020              ??_OSCILLATOR_Initialize 0020  
                    I2C_ISR@i2c_data 0074                             __ptext10 021C  
                       _SSP1CON2bits 0216                        __size_of_main 0070  
                           _tick_us1 0033                __end_of_SetClockSpeed 02DC  
 __end_of_INTERRUPT_InterruptManager 005A           _INTERRUPT_InterruptManager 0004  
                       _SSP1STATbits 0214                   _I2C_slaveWriteData 007C  
                         _INTCONbits 000B                   Tick24BitTimer@temp 0028  
                        pic14e$flags 007E                             intlevel1 0000  
            ?_PIN_MANAGER_Initialize 0070                    __CFG_CLKOUTEN$OFF 0000  
         __end_of_I2C_StatusCallback 0268      I2C_StatusCallback@i2c_bus_state 0072  
                         _OSCCONbits 0099                      _timer24overflow 0037  
                        _SSPCON1bits 0215                    ?_CheckTick24Timer 0020  
     __end_of_PIN_MANAGER_Initialize 028E                   ??_CheckTick24Timer 0024  
